--- Parsing ran at Sun Dec 14 06:46:08 +08 2025 ---
Parsing raw_html/12627.html (GP 12627)
Parsing raw_html/12628.html (GP 12628)
Parsing raw_html/12629.html (GP 12629)
Parsing raw_html/12630.html (GP 12630)
Parsing raw_html/12631.html (GP 12631)
Parsing raw_html/12632.html (GP 12632)
Parsing raw_html/12633.html (GP 12633)
Parsing raw_html/12634.html (GP 12634)
Parsing raw_html/12635.html (GP 12635)
Parsing raw_html/12636.html (GP 12636)
Parsing raw_html/12637.html (GP 12637)
Parsing raw_html/12638.html (GP 12638)
Parsing raw_html/12639.html (GP 12639)
Parsing raw_html/12640.html (GP 12640)
Parsing raw_html/12641.html (GP 12641)
Parsing raw_html/12642.html (GP 12642)
Parsing raw_html/12643.html (GP 12643)
Parsing raw_html/12644.html (GP 12644)
Parsing raw_html/12645.html (GP 12645)
Parsing raw_html/12646.html (GP 12646)
Parsing raw_html/12647.html (GP 12647)
Parsing raw_html/12648.html (GP 12648)
Parsing raw_html/12649.html (GP 12649)
Parsing raw_html/12650.html (GP 12650)
--- Parsing ran at Sun Dec 14 08:05:45 +08 2025 ---
Parsing raw_html/12627.html (GP 12627)
Parsing raw_html/12628.html (GP 12628)
Parsing raw_html/12629.html (GP 12629)
Parsing raw_html/12630.html (GP 12630)
Parsing raw_html/12631.html (GP 12631)
Parsing raw_html/12632.html (GP 12632)
Parsing raw_html/12633.html (GP 12633)
Parsing raw_html/12634.html (GP 12634)
Parsing raw_html/12635.html (GP 12635)
Parsing raw_html/12636.html (GP 12636)
Parsing raw_html/12637.html (GP 12637)
Parsing raw_html/12638.html (GP 12638)
Parsing raw_html/12639.html (GP 12639)
Parsing raw_html/12640.html (GP 12640)
Parsing raw_html/12641.html (GP 12641)
Parsing raw_html/12642.html (GP 12642)
Parsing raw_html/12643.html (GP 12643)
Parsing raw_html/12644.html (GP 12644)
Parsing raw_html/12645.html (GP 12645)
Parsing raw_html/12646.html (GP 12646)
Parsing raw_html/12647.html (GP 12647)
Parsing raw_html/12648.html (GP 12648)
Parsing raw_html/12649.html (GP 12649)
Parsing raw_html/12650.html (GP 12650)
--- Parsing ran at Sun Dec 14 08:18:17 +08 2025 ---
Parsing raw_html/12627.html (GP 12627)
Parsing raw_html/12628.html (GP 12628)
Parsing raw_html/12629.html (GP 12629)
Parsing raw_html/12630.html (GP 12630)
Parsing raw_html/12631.html (GP 12631)
Parsing raw_html/12632.html (GP 12632)
Parsing raw_html/12633.html (GP 12633)
Parsing raw_html/12634.html (GP 12634)
Parsing raw_html/12635.html (GP 12635)
Parsing raw_html/12636.html (GP 12636)
Parsing raw_html/12637.html (GP 12637)
Parsing raw_html/12638.html (GP 12638)
Parsing raw_html/12639.html (GP 12639)
Parsing raw_html/12640.html (GP 12640)
Parsing raw_html/12641.html (GP 12641)
Parsing raw_html/12642.html (GP 12642)
Parsing raw_html/12643.html (GP 12643)
Parsing raw_html/12644.html (GP 12644)
Parsing raw_html/12645.html (GP 12645)
Parsing raw_html/12646.html (GP 12646)
Parsing raw_html/12647.html (GP 12647)
Parsing raw_html/12648.html (GP 12648)
Parsing raw_html/12649.html (GP 12649)
Parsing raw_html/12650.html (GP 12650)
--- Parsing ran at Sun Dec 14 09:19:23 +08 2025 ---
Parsing GP 12627
Parsing GP 12628
Parsing GP 12629
Parsing GP 12630
Parsing GP 12631
Parsing GP 12632
Parsing GP 12633
Parsing GP 12634
Parsing GP 12635
Parsing GP 12636
Parsing GP 12637
Parsing GP 12638
Parsing GP 12639
Parsing GP 12640
Parsing GP 12641
Parsing GP 12642
Parsing GP 12643
Parsing GP 12644
Parsing GP 12645
Parsing GP 12646
Parsing GP 12647
Parsing GP 12648
Parsing GP 12649
Parsing GP 12650
--- Parsing ran at Sun Dec 14 09:31:07 +08 2025 ---
Parsing GP 12627
Parsing GP 12628
Parsing GP 12629
Parsing GP 12630
Parsing GP 12631
Parsing GP 12632
Parsing GP 12633
Parsing GP 12634
Parsing GP 12635
Parsing GP 12636
Parsing GP 12637
Parsing GP 12638
Parsing GP 12639
Parsing GP 12640
Parsing GP 12641
Parsing GP 12642
Parsing GP 12643
Parsing GP 12644
Parsing GP 12645
Parsing GP 12646
Parsing GP 12647
Parsing GP 12648
Parsing GP 12649
Parsing GP 12650
--- Parsing ran at Sun Dec 14 09:42:55 +08 2025 ---
Parsing GP 12627
Parsing GP 12628
Parsing GP 12629
Parsing GP 12630
Parsing GP 12631
Parsing GP 12632
Parsing GP 12633
Parsing GP 12634
Parsing GP 12635
Parsing GP 12636
Parsing GP 12637
Parsing GP 12638
Parsing GP 12639
Parsing GP 12640
Parsing GP 12641
Parsing GP 12642
Parsing GP 12643
Parsing GP 12644
Parsing GP 12645
Parsing GP 12646
Parsing GP 12647
Parsing GP 12648
Parsing GP 12649
Parsing GP 12650
--- Parsing ran at Sun Dec 14 09:47:02 +08 2025 ---
Parsing GP 12627
Skipping incomplete row: <table><tr valign="top"><td><!-- layout --><form action="/main/m/" method="GET" class="sid_find_form"><input id="in_sid" type="text" name="sid" value="56480" title="sid"><button type="submit" title="find by sid">Go</button><button id="b_copy_sid_url" title="copy sid url">Url</button></form><script type="text/javascript">$(function(){$("#b_copy_sid_url").click(function(){var input = $("#in_sid");var sid = input.val();var url = "https://results.motorsport.com//main/m/?sid="+sid;input.val(url);input.select();document.execCommand("copy");input.val(sid);alert('session url copied to clipboard');return false;});});</script><br><select name="series" onchange="window.location.href = '/main/m/'+value"><option value="206" >ASIAN LE MANS</option><option value="30" >BTCC</option><option value="45" >DTM</option><option value="104" >EUROPEAN LE MANS</option><option value="6216" >F1 Academy</option><option value="54"  selected>FORMULA 1</option><option value="208" >FORMULA E</option><option value="73" >GP2</option><option value="74" >GP3</option><option value="211" >GT-MASTERS</option><option value="207" >IMSA</option><option value="87" >INDY LIGHTS</option><option value="86" >INDYCAR</option><option value="212" >MOTO2</option><option value="213" >MOTO3</option><option value="112" >MOTOGP</option><option value="1772" >MX2</option><option value="1771" >MXGP</option><option value="119" >NASCAR SPRINT CUP</option><option value="126" >NASCAR TRUCK</option><option value="124" >NASCAR XFINITY</option><option value="852" >STOCK CAR BRAZIL</option><option value="1101" >SUPER FORMULA</option><option value="172" >SUPER GT</option><option value="6098" >TCR AUSTRALIA</option><option value="18" >V8 SUPERCARS</option><option value="205" >WEC</option><option value="160" >WORLD CHALLENGE</option><option value="210" >WORLD RALLYCROSS</option><option value="194" >WORLD SUPERBIKE</option><option value="193" >WRC</option><option value="5551" >WTCR</option></select><br><br><select name="championship" onchange="window.location.href = '/main/m/54/'+value"><option value="367"  selected> 2025</option><option value="336" > 2024</option><option value="307" > 2023</option><option value="280" > 2022</option><option value="242" > 2021</option><option value="213" > 2020</option><option value="189" > 2019</option><option value="165" > 2018</option><option value="127" > 2017</option><option value="76" > 2016</option><option value="66" > 2015</option><option value="65" > 2014</option><option value="64" > 2013</option><option value="63" > 2012</option><option value="62" > 2011</option><option value="61" > 2010</option><option value="60" > 2009</option><option value="59" > 2008</option><option value="58" > 2007</option><option value="57" > 2006</option><option value="56" > 2005</option><option value="55" > 2004</option><option value="54" > 2003</option><option value="53" > 2002</option><option value="52" > 2001</option><option value="51" > 2000</option><option value="50" > 1999</option><option value="49" > 1998</option><option value="48" > 1997</option><option value="47" > 1996</option><option value="46" > 1995</option><option value="45" > 1994</option><option value="44" > 1993</option><option value="43" > 1992</option><option value="42" > 1991</option><option value="41" > 1990</option><option value="40" > 1989</option><option value="39" > 1988</option><option value="38" > 1987</option><option value="37" > 1986</option><option value="36" > 1985</option><option value="35" > 1984</option><option value="34" > 1983</option><option value="33" > 1982</option><option value="32" > 1981</option><option value="31" > 1980</option><option value="30" > 1979</option><option value="29" > 1978</option><option value="28" > 1977</option><option value="27" > 1976</option><option value="26" > 1975</option><option value="25" > 1974</option><option value="24" > 1973</option><option value="23" > 1972</option><option value="22" > 1971</option><option value="21" > 1970</option><option value="20" > 1969</option><option value="19" > 1968</option><option value="18" > 1967</option><option value="17" > 1966</option><option value="16" > 1965</option><option value="15" > 1964</option><option value="14" > 1963</option><option value="13" > 1962</option><option value="12" > 1961</option><option value="11" > 1960</option><option value="10" > 1959</option><option value="9" > 1958</option><option value="8" > 1957</option><option value="7" > 1956</option><option value="6" > 1955</option><option value="5" > 1954</option><option value="4" > 1953</option><option value="3" > 1952</option><option value="2" > 1951</option><option value="1" > 1950</option></select>    <br><br><a href="/main/m/54/367/-2">Drivers Championship</a><br><a href="/main/m/54/367/-3">Constructors Championship</a><br><a href="/main/m/54/367/-10">Drivers penalty points</a><br><a href="/main/m/54/367/-20">Drivers reprimands</a><br><br>    <a href="/main/m/54/367/12651"> Bahrain</a><div style="font-size:8px; padding-left: 10px; margin:-5px 0 -2px;">28.02.2025</div><b> Australia</b> <div style="font-size:8px; padding-left: 10px; margin:-5px 0 -2px;">16.03.2025</div><a href="/main/m/54/367/12628"> China</a><div style="font-size:8px; padding-left: 10px; margin:-5px 0 -2px;">23.03.2025</div><a href="/main/m/54/367/12629"> Japan</a><div style="font-size:8px; padding-left: 10px; margin:-5px 0 -2px;">06.04.2025</div><a href="/main/m/54/367/12630"> Bahrain</a><div style="font-size:8px; padding-left: 10px; margin:-5px 0 -2px;">13.04.2025</div><a href="/main/m/54/367/12631"> Saudi Arabia</a><div style="font-size:8px; padding-left: 10px; margin:-5px 0 -2px;">20.04.2025</div><a href="/main/m/54/367/12632"> Miami</a><div style="font-size:8px; padding-left: 10px; margin:-5px 0 -2px;">04.05.2025</div><a href="/main/m/54/367/12633"> Emilia Romagna</a><div style="font-size:8px; padding-left: 10px; margin:-5px 0 -2px;">18.05.2025</div><a href="/main/m/54/367/12634"> Monaco</a><div style="font-size:8px; padding-left: 10px; margin:-5px 0 -2px;">25.05.2025</div><a href="/main/m/54/367/12635"> Spain</a><div style="font-size:8px; padding-left: 10px; margin:-5px 0 -2px;">01.06.2025</div><a href="/main/m/54/367/12636"> Canada</a><div style="font-size:8px; padding-left: 10px; margin:-5px 0 -2px;">15.06.2025</div><a href="/main/m/54/367/12637"> Austria</a><div style="font-size:8px; padding-left: 10px; margin:-5px 0 -2px;">29.06.2025</div><a href="/main/m/54/367/12638"> Great Britain</a><div style="font-size:8px; padding-left: 10px; margin:-5px 0 -2px;">06.07.2025</div><a href="/main/m/54/367/12639"> Belgium</a><div style="font-size:8px; padding-left: 10px; margin:-5px 0 -2px;">27.07.2025</div><a href="/main/m/54/367/12640"> Hungary</a><div style="font-size:8px; padding-left: 10px; margin:-5px 0 -2px;">03.08.2025</div><a href="/main/m/54/367/12641"> Netherlands</a><div style="font-size:8px; padding-left: 10px; margin:-5px 0 -2px;">31.08.2025</div><a href="/main/m/54/367/12642"> Italy</a><div style="font-size:8px; padding-left: 10px; margin:-5px 0 -2px;">07.09.2025</div><a href="/main/m/54/367/12643"> Azerbaijan</a><div style="font-size:8px; padding-left: 10px; margin:-5px 0 -2px;">21.09.2025</div><a href="/main/m/54/367/12644"> Singapore</a><div style="font-size:8px; padding-left: 10px; margin:-5px 0 -2px;">05.10.2025</div><a href="/main/m/54/367/12645"> USA</a><div style="font-size:8px; padding-left: 10px; margin:-5px 0 -2px;">19.10.2025</div><a href="/main/m/54/367/12646"> Mexico</a><div style="font-size:8px; padding-left: 10px; margin:-5px 0 -2px;">26.10.2025</div><a href="/main/m/54/367/12647"> Brazil</a><div style="font-size:8px; padding-left: 10px; margin:-5px 0 -2px;">09.11.2025</div><a href="/main/m/54/367/12648"> Las Vegas</a><div style="font-size:8px; padding-left: 10px; margin:-5px 0 -2px;">22.11.2025</div><a href="/main/m/54/367/12649"> Qatar</a><div style="font-size:8px; padding-left: 10px; margin:-5px 0 -2px;">30.11.2025</div><a href="/main/m/54/367/12650"> Abu Dhabi</a><div style="font-size:8px; padding-left: 10px; margin:-5px 0 -2px;">07.12.2025</div><a href="/main/m/54/367/12847"> Abu Dhabi</a><div style="font-size:8px; padding-left: 10px; margin:-5px 0 -2px;">09.12.2025</div></td><td id="td_menu_holder"><!-- vertical menu --></td><td><!-- layout --><h2>1. Australia / Rolex Australian Grand Prix / Melbourne</h2><div id="session_list">  | <a  href="/main/m/54/367/12627/-1">ENTRY LIST</a> | <a  href="/main/m/54/367/12627/56473">P1</a> | <a  href="/main/m/54/367/12627/56474">P2</a> | <a  href="/main/m/54/367/12627/56475">P3</a> | <a  href="/main/m/54/367/12627/56476">Q1</a> | <a  href="/main/m/54/367/12627/56477">Q2</a> | <a  href="/main/m/54/367/12627/56478">Q3</a> | <a  href="/main/m/54/367/12627/56479">GRID</a> | <b >RACE</b> | <a href="/main/m/54/367/12627/56480/2">TYRE HISTORY</a> | <a  href="/main/m/54/367/12627/56481">FASTEST LAPS</a> | <a  href="/main/m/54/367/12627/56482">PIT STOPS</a> | <a  href="/main/m/54/367/12627/56483">SPEEDS</a></div> <br>  <h2>RACE</h2>&nbsp; <a href="/main/m/54/367/12627/56480/3">Data player</a>  &nbsp; <a href="/main/m/54/367/12627/56480/4">LIVE</a>  &nbsp; <a href="/main/m/54/367/12627/56480/5">LIVE 2</a>  &nbsp; <a href="/main/m/54/367/12627/56480/6">LV_5</a>  &nbsp; <a href="/main/m/54/367/12627/56480/7">DP_5</a> &nbsp;<a href="?v=4">Laps times</a><br><table><tr valign="top"><td><table class="results tab_56480" ><tr valign="top"><th align="right">cla</th><th align="left"></th><th align="right">#</th><th align="left">driver</th><th align="left">chassis</th><th align="left">engine</th><th align="right">laps</th><th align="right">time</th><th align="right">gap</th><th align="right">int</th><th align="right">km/h</th><th align="right">pits</th><th align="left">retirement</th><th align="right">pts</th><th align="right"style="background-color: #fcc">pen</th><th align="right"style="background-color: #fcc">reprim</th><th align="left">tyres change</th><th align="left">b_tyres</th></tr> 
Parsing GP 12628
Skipping incomplete row: <table><tr valign="top"><td><!-- layout --><form action="/main/m/" method="GET" class="sid_find_form"><input id="in_sid" type="text" name="sid" value="56580" title="sid"><button type="submit" title="find by sid">Go</button><button id="b_copy_sid_url" title="copy sid url">Url</button></form><script type="text/javascript">$(function(){$("#b_copy_sid_url").click(function(){var input = $("#in_sid");var sid = input.val();var url = "https://results.motorsport.com//main/m/?sid="+sid;input.val(url);input.select();document.execCommand("copy");input.val(sid);alert('session url copied to clipboard');return false;});});</script><br><select name="series" onchange="window.location.href = '/main/m/'+value"><option value="206" >ASIAN LE MANS</option><option value="30" >BTCC</option><option value="45" >DTM</option><option value="104" >EUROPEAN LE MANS</option><option value="6216" >F1 Academy</option><option value="54"  selected>FORMULA 1</option><option value="208" >FORMULA E</option><option value="73" >GP2</option><option value="74" >GP3</option><option value="211" >GT-MASTERS</option><option value="207" >IMSA</option><option value="87" >INDY LIGHTS</option><option value="86" >INDYCAR</option><option value="212" >MOTO2</option><option value="213" >MOTO3</option><option value="112" >MOTOGP</option><option value="1772" >MX2</option><option value="1771" >MXGP</option><option value="119" >NASCAR SPRINT CUP</option><option value="126" >NASCAR TRUCK</option><option value="124" >NASCAR XFINITY</option><option value="852" >STOCK CAR BRAZIL</option><option value="1101" >SUPER FORMULA</option><option value="172" >SUPER GT</option><option value="6098" >TCR AUSTRALIA</option><option value="18" >V8 SUPERCARS</option><option value="205" >WEC</option><option value="160" >WORLD CHALLENGE</option><option value="210" >WORLD RALLYCROSS</option><option value="194" >WORLD SUPERBIKE</option><option value="193" >WRC</option><option value="5551" >WTCR</option></select><br><br><select name="championship" onchange="window.location.href = '/main/m/54/'+value"><option value="367"  selected> 2025</option><option value="336" > 2024</option><option value="307" > 2023</option><option value="280" > 2022</option><option value="242" > 2021</option><option value="213" > 2020</option><option value="189" > 2019</option><option value="165" > 2018</option><option value="127" > 2017</option><option value="76" > 2016</option><option value="66" > 2015</option><option value="65" > 2014</option><option value="64" > 2013</option><option value="63" > 2012</option><option value="62" > 2011</option><option value="61" > 2010</option><option value="60" > 2009</option><option value="59" > 2008</option><option value="58" > 2007</option><option value="57" > 2006</option><option value="56" > 2005</option><option value="55" > 2004</option><option value="54" > 2003</option><option value="53" > 2002</option><option value="52" > 2001</option><option value="51" > 2000</option><option value="50" > 1999</option><option value="49" > 1998</option><option value="48" > 1997</option><option value="47" > 1996</option><option value="46" > 1995</option><option value="45" > 1994</option><option value="44" > 1993</option><option value="43" > 1992</option><option value="42" > 1991</option><option value="41" > 1990</option><option value="40" > 1989</option><option value="39" > 1988</option><option value="38" > 1987</option><option value="37" > 1986</option><option value="36" > 1985</option><option value="35" > 1984</option><option value="34" > 1983</option><option value="33" > 1982</option><option value="32" > 1981</option><option value="31" > 1980</option><option value="30" > 1979</option><option value="29" > 1978</option><option value="28" > 1977</option><option value="27" > 1976</option><option value="26" > 1975</option><option value="25" > 1974</option><option value="24" > 1973</option><option value="23" > 1972</option><option value="22" > 1971</option><option value="21" > 1970</option><option value="20" > 1969</option><option value="19" > 1968</option><option value="18" > 1967</option><option value="17" > 1966</option><option value="16" > 1965</option><option value="15" > 1964</option><option value="14" > 1963</option><option value="13" > 1962</option><option value="12" > 1961</option><option value="11" > 1960</option><option value="10" > 1959</option><option value="9" > 1958</option><option value="8" > 1957</option><option value="7" > 1956</option><option value="6" > 1955</option><option value="5" > 1954</option><option value="4" > 1953</option><option value="3" > 1952</option><option value="2" > 1951</option><option value="1" > 1950</option></select>    <br><br><a href="/main/m/54/367/-2">Drivers Championship</a><br><a href="/main/m/54/367/-3">Constructors Championship</a><br><a href="/main/m/54/367/-10">Drivers penalty points</a><br><a href="/main/m/54/367/-20">Drivers reprimands</a><br><br>    <a href="/main/m/54/367/12651"> Bahrain</a><div style="font-size:8px; padding-left: 10px; margin:-5px 0 -2px;">28.02.2025</div><a href="/main/m/54/367/12627"> Australia</a><div style="font-size:8px; padding-left: 10px; margin:-5px 0 -2px;">16.03.2025</div><b> China</b> <div style="font-size:8px; padding-left: 10px; margin:-5px 0 -2px;">23.03.2025</div><a href="/main/m/54/367/12629"> Japan</a><div style="font-size:8px; padding-left: 10px; margin:-5px 0 -2px;">06.04.2025</div><a href="/main/m/54/367/12630"> Bahrain</a><div style="font-size:8px; padding-left: 10px; margin:-5px 0 -2px;">13.04.2025</div><a href="/main/m/54/367/12631"> Saudi Arabia</a><div style="font-size:8px; padding-left: 10px; margin:-5px 0 -2px;">20.04.2025</div><a href="/main/m/54/367/12632"> Miami</a><div style="font-size:8px; padding-left: 10px; margin:-5px 0 -2px;">04.05.2025</div><a href="/main/m/54/367/12633"> Emilia Romagna</a><div style="font-size:8px; padding-left: 10px; margin:-5px 0 -2px;">18.05.2025</div><a href="/main/m/54/367/12634"> Monaco</a><div style="font-size:8px; padding-left: 10px; margin:-5px 0 -2px;">25.05.2025</div><a href="/main/m/54/367/12635"> Spain</a><div style="font-size:8px; padding-left: 10px; margin:-5px 0 -2px;">01.06.2025</div><a href="/main/m/54/367/12636"> Canada</a><div style="font-size:8px; padding-left: 10px; margin:-5px 0 -2px;">15.06.2025</div><a href="/main/m/54/367/12637"> Austria</a><div style="font-size:8px; padding-left: 10px; margin:-5px 0 -2px;">29.06.2025</div><a href="/main/m/54/367/12638"> Great Britain</a><div style="font-size:8px; padding-left: 10px; margin:-5px 0 -2px;">06.07.2025</div><a href="/main/m/54/367/12639"> Belgium</a><div style="font-size:8px; padding-left: 10px; margin:-5px 0 -2px;">27.07.2025</div><a href="/main/m/54/367/12640"> Hungary</a><div style="font-size:8px; padding-left: 10px; margin:-5px 0 -2px;">03.08.2025</div><a href="/main/m/54/367/12641"> Netherlands</a><div style="font-size:8px; padding-left: 10px; margin:-5px 0 -2px;">31.08.2025</div><a href="/main/m/54/367/12642"> Italy</a><div style="font-size:8px; padding-left: 10px; margin:-5px 0 -2px;">07.09.2025</div><a href="/main/m/54/367/12643"> Azerbaijan</a><div style="font-size:8px; padding-left: 10px; margin:-5px 0 -2px;">21.09.2025</div><a href="/main/m/54/367/12644"> Singapore</a><div style="font-size:8px; padding-left: 10px; margin:-5px 0 -2px;">05.10.2025</div><a href="/main/m/54/367/12645"> USA</a><div style="font-size:8px; padding-left: 10px; margin:-5px 0 -2px;">19.10.2025</div><a href="/main/m/54/367/12646"> Mexico</a><div style="font-size:8px; padding-left: 10px; margin:-5px 0 -2px;">26.10.2025</div><a href="/main/m/54/367/12647"> Brazil</a><div style="font-size:8px; padding-left: 10px; margin:-5px 0 -2px;">09.11.2025</div><a href="/main/m/54/367/12648"> Las Vegas</a><div style="font-size:8px; padding-left: 10px; margin:-5px 0 -2px;">22.11.2025</div><a href="/main/m/54/367/12649"> Qatar</a><div style="font-size:8px; padding-left: 10px; margin:-5px 0 -2px;">30.11.2025</div><a href="/main/m/54/367/12650"> Abu Dhabi</a><div style="font-size:8px; padding-left: 10px; margin:-5px 0 -2px;">07.12.2025</div><a href="/main/m/54/367/12847"> Abu Dhabi</a><div style="font-size:8px; padding-left: 10px; margin:-5px 0 -2px;">09.12.2025</div></td><td id="td_menu_holder"><!-- vertical menu --></td><td><!-- layout --><h2>2. China / Heineken Chinese Grand Prix / Shanghai</h2><div id="session_list">  | <a  href="/main/m/54/367/12628/-1">ENTRY LIST</a> | <a  href="/main/m/54/367/12628/56569">P1</a> | <a  href="/main/m/54/367/12628/56570">SQ1</a> | <a  href="/main/m/54/367/12628/56571">SQ2</a> | <a  href="/main/m/54/367/12628/56572">SQ3</a> | <a  href="/main/m/54/367/12628/56573">SPR GRID</a> | <a  href="/main/m/54/367/12628/56574">SPR</a> | <a  href="/main/m/54/367/12628/56575">SPR FL</a> | <a  href="/main/m/54/367/12628/56576">Q1</a> | <a  href="/main/m/54/367/12628/56577">Q2</a> | <a  href="/main/m/54/367/12628/56578">Q3</a> | <a  href="/main/m/54/367/12628/56579">GRID</a> | <b >RACE</b> | <a href="/main/m/54/367/12628/56580/2">TYRE HISTORY</a> | <a  href="/main/m/54/367/12628/56581">FASTEST LAPS</a> | <a  href="/main/m/54/367/12628/56582">PIT STOPS</a> | <a  href="/main/m/54/367/12628/56583">SPEEDS</a></div> <br>  <h2>RACE</h2>&nbsp; <a href="/main/m/54/367/12628/56580/3">Data player</a>  &nbsp; <a href="/main/m/54/367/12628/56580/4">LIVE</a>  &nbsp; <a href="/main/m/54/367/12628/56580/5">LIVE 2</a>  &nbsp; <a href="/main/m/54/367/12628/56580/6">LV_5</a>  &nbsp; <a href="/main/m/54/367/12628/56580/7">DP_5</a> &nbsp;<a href="?v=4">Laps times</a><br><table><tr valign="top"><td><table class="results tab_56580" ><tr valign="top"><th align="right">cla</th><th align="left"></th><th align="right">#</th><th align="left">driver</th><th align="left">chassis</th><th align="left">engine</th><th align="right">laps</th><th align="right">time</th><th align="right">gap</th><th align="right">int</th><th align="right">km/h</th><th align="right">pits</th><th align="left">retirement</th><th align="right">pts</th><th align="right">pen</th><th align="right"style="background-color: #fcc">reprim</th><th align="left">tyres change</th><th align="left">b_tyres</th></tr> 
Parsing GP 12629
Skipping incomplete row: <table><tr valign="top"><td><!-- layout --><form action="/main/m/" method="GET" class="sid_find_form"><input id="in_sid" type="text" name="sid" value="56701" title="sid"><button type="submit" title="find by sid">Go</button><button id="b_copy_sid_url" title="copy sid url">Url</button></form><script type="text/javascript">$(function(){$("#b_copy_sid_url").click(function(){var input = $("#in_sid");var sid = input.val();var url = "https://results.motorsport.com//main/m/?sid="+sid;input.val(url);input.select();document.execCommand("copy");input.val(sid);alert('session url copied to clipboard');return false;});});</script><br><select name="series" onchange="window.location.href = '/main/m/'+value"><option value="206" >ASIAN LE MANS</option><option value="30" >BTCC</option><option value="45" >DTM</option><option value="104" >EUROPEAN LE MANS</option><option value="6216" >F1 Academy</option><option value="54"  selected>FORMULA 1</option><option value="208" >FORMULA E</option><option value="73" >GP2</option><option value="74" >GP3</option><option value="211" >GT-MASTERS</option><option value="207" >IMSA</option><option value="87" >INDY LIGHTS</option><option value="86" >INDYCAR</option><option value="212" >MOTO2</option><option value="213" >MOTO3</option><option value="112" >MOTOGP</option><option value="1772" >MX2</option><option value="1771" >MXGP</option><option value="119" >NASCAR SPRINT CUP</option><option value="126" >NASCAR TRUCK</option><option value="124" >NASCAR XFINITY</option><option value="852" >STOCK CAR BRAZIL</option><option value="1101" >SUPER FORMULA</option><option value="172" >SUPER GT</option><option value="6098" >TCR AUSTRALIA</option><option value="18" >V8 SUPERCARS</option><option value="205" >WEC</option><option value="160" >WORLD CHALLENGE</option><option value="210" >WORLD RALLYCROSS</option><option value="194" >WORLD SUPERBIKE</option><option value="193" >WRC</option><option value="5551" >WTCR</option></select><br><br><select name="championship" onchange="window.location.href = '/main/m/54/'+value"><option value="367"  selected> 2025</option><option value="336" > 2024</option><option value="307" > 2023</option><option value="280" > 2022</option><option value="242" > 2021</option><option value="213" > 2020</option><option value="189" > 2019</option><option value="165" > 2018</option><option value="127" > 2017</option><option value="76" > 2016</option><option value="66" > 2015</option><option value="65" > 2014</option><option value="64" > 2013</option><option value="63" > 2012</option><option value="62" > 2011</option><option value="61" > 2010</option><option value="60" > 2009</option><option value="59" > 2008</option><option value="58" > 2007</option><option value="57" > 2006</option><option value="56" > 2005</option><option value="55" > 2004</option><option value="54" > 2003</option><option value="53" > 2002</option><option value="52" > 2001</option><option value="51" > 2000</option><option value="50" > 1999</option><option value="49" > 1998</option><option value="48" > 1997</option><option value="47" > 1996</option><option value="46" > 1995</option><option value="45" > 1994</option><option value="44" > 1993</option><option value="43" > 1992</option><option value="42" > 1991</option><option value="41" > 1990</option><option value="40" > 1989</option><option value="39" > 1988</option><option value="38" > 1987</option><option value="37" > 1986</option><option value="36" > 1985</option><option value="35" > 1984</option><option value="34" > 1983</option><option value="33" > 1982</option><option value="32" > 1981</option><option value="31" > 1980</option><option value="30" > 1979</option><option value="29" > 1978</option><option value="28" > 1977</option><option value="27" > 1976</option><option value="26" > 1975</option><option value="25" > 1974</option><option value="24" > 1973</option><option value="23" > 1972</option><option value="22" > 1971</option><option value="21" > 1970</option><option value="20" > 1969</option><option value="19" > 1968</option><option value="18" > 1967</option><option value="17" > 1966</option><option value="16" > 1965</option><option value="15" > 1964</option><option value="14" > 1963</option><option value="13" > 1962</option><option value="12" > 1961</option><option value="11" > 1960</option><option value="10" > 1959</option><option value="9" > 1958</option><option value="8" > 1957</option><option value="7" > 1956</option><option value="6" > 1955</option><option value="5" > 1954</option><option value="4" > 1953</option><option value="3" > 1952</option><option value="2" > 1951</option><option value="1" > 1950</option></select>    <br><br><a href="/main/m/54/367/-2">Drivers Championship</a><br><a href="/main/m/54/367/-3">Constructors Championship</a><br><a href="/main/m/54/367/-10">Drivers penalty points</a><br><a href="/main/m/54/367/-20">Drivers reprimands</a><br><br>    <a href="/main/m/54/367/12651"> Bahrain</a><div style="font-size:8px; padding-left: 10px; margin:-5px 0 -2px;">28.02.2025</div><a href="/main/m/54/367/12627"> Australia</a><div style="font-size:8px; padding-left: 10px; margin:-5px 0 -2px;">16.03.2025</div><a href="/main/m/54/367/12628"> China</a><div style="font-size:8px; padding-left: 10px; margin:-5px 0 -2px;">23.03.2025</div><b> Japan</b> <div style="font-size:8px; padding-left: 10px; margin:-5px 0 -2px;">06.04.2025</div><a href="/main/m/54/367/12630"> Bahrain</a><div style="font-size:8px; padding-left: 10px; margin:-5px 0 -2px;">13.04.2025</div><a href="/main/m/54/367/12631"> Saudi Arabia</a><div style="font-size:8px; padding-left: 10px; margin:-5px 0 -2px;">20.04.2025</div><a href="/main/m/54/367/12632"> Miami</a><div style="font-size:8px; padding-left: 10px; margin:-5px 0 -2px;">04.05.2025</div><a href="/main/m/54/367/12633"> Emilia Romagna</a><div style="font-size:8px; padding-left: 10px; margin:-5px 0 -2px;">18.05.2025</div><a href="/main/m/54/367/12634"> Monaco</a><div style="font-size:8px; padding-left: 10px; margin:-5px 0 -2px;">25.05.2025</div><a href="/main/m/54/367/12635"> Spain</a><div style="font-size:8px; padding-left: 10px; margin:-5px 0 -2px;">01.06.2025</div><a href="/main/m/54/367/12636"> Canada</a><div style="font-size:8px; padding-left: 10px; margin:-5px 0 -2px;">15.06.2025</div><a href="/main/m/54/367/12637"> Austria</a><div style="font-size:8px; padding-left: 10px; margin:-5px 0 -2px;">29.06.2025</div><a href="/main/m/54/367/12638"> Great Britain</a><div style="font-size:8px; padding-left: 10px; margin:-5px 0 -2px;">06.07.2025</div><a href="/main/m/54/367/12639"> Belgium</a><div style="font-size:8px; padding-left: 10px; margin:-5px 0 -2px;">27.07.2025</div><a href="/main/m/54/367/12640"> Hungary</a><div style="font-size:8px; padding-left: 10px; margin:-5px 0 -2px;">03.08.2025</div><a href="/main/m/54/367/12641"> Netherlands</a><div style="font-size:8px; padding-left: 10px; margin:-5px 0 -2px;">31.08.2025</div><a href="/main/m/54/367/12642"> Italy</a><div style="font-size:8px; padding-left: 10px; margin:-5px 0 -2px;">07.09.2025</div><a href="/main/m/54/367/12643"> Azerbaijan</a><div style="font-size:8px; padding-left: 10px; margin:-5px 0 -2px;">21.09.2025</div><a href="/main/m/54/367/12644"> Singapore</a><div style="font-size:8px; padding-left: 10px; margin:-5px 0 -2px;">05.10.2025</div><a href="/main/m/54/367/12645"> USA</a><div style="font-size:8px; padding-left: 10px; margin:-5px 0 -2px;">19.10.2025</div><a href="/main/m/54/367/12646"> Mexico</a><div style="font-size:8px; padding-left: 10px; margin:-5px 0 -2px;">26.10.2025</div><a href="/main/m/54/367/12647"> Brazil</a><div style="font-size:8px; padding-left: 10px; margin:-5px 0 -2px;">09.11.2025</div><a href="/main/m/54/367/12648"> Las Vegas</a><div style="font-size:8px; padding-left: 10px; margin:-5px 0 -2px;">22.11.2025</div><a href="/main/m/54/367/12649"> Qatar</a><div style="font-size:8px; padding-left: 10px; margin:-5px 0 -2px;">30.11.2025</div><a href="/main/m/54/367/12650"> Abu Dhabi</a><div style="font-size:8px; padding-left: 10px; margin:-5px 0 -2px;">07.12.2025</div><a href="/main/m/54/367/12847"> Abu Dhabi</a><div style="font-size:8px; padding-left: 10px; margin:-5px 0 -2px;">09.12.2025</div></td><td id="td_menu_holder"><!-- vertical menu --></td><td><!-- layout --><h2>3. Japan / Lenovo Japanese Grand Prix / Suzuka</h2><div id="session_list">  | <a  href="/main/m/54/367/12629/-1">ENTRY LIST</a> | <a  href="/main/m/54/367/12629/56694">P1</a> | <a  href="/main/m/54/367/12629/56695">P2</a> | <a  href="/main/m/54/367/12629/56696">P3</a> | <a  href="/main/m/54/367/12629/56697">Q1</a> | <a  href="/main/m/54/367/12629/56698">Q2</a> | <a  href="/main/m/54/367/12629/56699">Q3</a> | <a  href="/main/m/54/367/12629/56700">GRID</a> | <b >RACE</b> | <a href="/main/m/54/367/12629/56701/2">TYRE HISTORY</a> | <a  href="/main/m/54/367/12629/56702">FASTEST LAPS</a> | <a  href="/main/m/54/367/12629/56703">PIT STOPS</a> | <a  href="/main/m/54/367/12629/56704">SPEEDS</a></div> <br>  <h2>RACE</h2>&nbsp; <a href="/main/m/54/367/12629/56701/3">Data player</a>  &nbsp; <a href="/main/m/54/367/12629/56701/4">LIVE</a>  &nbsp; <a href="/main/m/54/367/12629/56701/5">LIVE 2</a>  &nbsp; <a href="/main/m/54/367/12629/56701/6">LV_5</a>  &nbsp; <a href="/main/m/54/367/12629/56701/7">DP_5</a> &nbsp;<a href="?v=4">Laps times</a><br><table><tr valign="top"><td><table class="results tab_56701" ><tr valign="top"><th align="right">cla</th><th align="left"style="background-color: #fcc"></th><th align="right">#</th><th align="left">driver</th><th align="left">chassis</th><th align="left">engine</th><th align="right">laps</th><th align="right">time</th><th align="right">gap</th><th align="right">int</th><th align="right">km/h</th><th align="right">pits</th><th align="left"style="background-color: #fcc">retirement</th><th align="right">pts</th><th align="right"style="background-color: #fcc">pen</th><th align="right"style="background-color: #fcc">reprim</th><th align="left">tyres change</th><th align="left">b_tyres</th></tr> 
Parsing GP 12630
Skipping incomplete row: <table><tr valign="top"><td><!-- layout --><form action="/main/m/" method="GET" class="sid_find_form"><input id="in_sid" type="text" name="sid" value="56731" title="sid"><button type="submit" title="find by sid">Go</button><button id="b_copy_sid_url" title="copy sid url">Url</button></form><script type="text/javascript">$(function(){$("#b_copy_sid_url").click(function(){var input = $("#in_sid");var sid = input.val();var url = "https://results.motorsport.com//main/m/?sid="+sid;input.val(url);input.select();document.execCommand("copy");input.val(sid);alert('session url copied to clipboard');return false;});});</script><br><select name="series" onchange="window.location.href = '/main/m/'+value"><option value="206" >ASIAN LE MANS</option><option value="30" >BTCC</option><option value="45" >DTM</option><option value="104" >EUROPEAN LE MANS</option><option value="6216" >F1 Academy</option><option value="54"  selected>FORMULA 1</option><option value="208" >FORMULA E</option><option value="73" >GP2</option><option value="74" >GP3</option><option value="211" >GT-MASTERS</option><option value="207" >IMSA</option><option value="87" >INDY LIGHTS</option><option value="86" >INDYCAR</option><option value="212" >MOTO2</option><option value="213" >MOTO3</option><option value="112" >MOTOGP</option><option value="1772" >MX2</option><option value="1771" >MXGP</option><option value="119" >NASCAR SPRINT CUP</option><option value="126" >NASCAR TRUCK</option><option value="124" >NASCAR XFINITY</option><option value="852" >STOCK CAR BRAZIL</option><option value="1101" >SUPER FORMULA</option><option value="172" >SUPER GT</option><option value="6098" >TCR AUSTRALIA</option><option value="18" >V8 SUPERCARS</option><option value="205" >WEC</option><option value="160" >WORLD CHALLENGE</option><option value="210" >WORLD RALLYCROSS</option><option value="194" >WORLD SUPERBIKE</option><option value="193" >WRC</option><option value="5551" >WTCR</option></select><br><br><select name="championship" onchange="window.location.href = '/main/m/54/'+value"><option value="367"  selected> 2025</option><option value="336" > 2024</option><option value="307" > 2023</option><option value="280" > 2022</option><option value="242" > 2021</option><option value="213" > 2020</option><option value="189" > 2019</option><option value="165" > 2018</option><option value="127" > 2017</option><option value="76" > 2016</option><option value="66" > 2015</option><option value="65" > 2014</option><option value="64" > 2013</option><option value="63" > 2012</option><option value="62" > 2011</option><option value="61" > 2010</option><option value="60" > 2009</option><option value="59" > 2008</option><option value="58" > 2007</option><option value="57" > 2006</option><option value="56" > 2005</option><option value="55" > 2004</option><option value="54" > 2003</option><option value="53" > 2002</option><option value="52" > 2001</option><option value="51" > 2000</option><option value="50" > 1999</option><option value="49" > 1998</option><option value="48" > 1997</option><option value="47" > 1996</option><option value="46" > 1995</option><option value="45" > 1994</option><option value="44" > 1993</option><option value="43" > 1992</option><option value="42" > 1991</option><option value="41" > 1990</option><option value="40" > 1989</option><option value="39" > 1988</option><option value="38" > 1987</option><option value="37" > 1986</option><option value="36" > 1985</option><option value="35" > 1984</option><option value="34" > 1983</option><option value="33" > 1982</option><option value="32" > 1981</option><option value="31" > 1980</option><option value="30" > 1979</option><option value="29" > 1978</option><option value="28" > 1977</option><option value="27" > 1976</option><option value="26" > 1975</option><option value="25" > 1974</option><option value="24" > 1973</option><option value="23" > 1972</option><option value="22" > 1971</option><option value="21" > 1970</option><option value="20" > 1969</option><option value="19" > 1968</option><option value="18" > 1967</option><option value="17" > 1966</option><option value="16" > 1965</option><option value="15" > 1964</option><option value="14" > 1963</option><option value="13" > 1962</option><option value="12" > 1961</option><option value="11" > 1960</option><option value="10" > 1959</option><option value="9" > 1958</option><option value="8" > 1957</option><option value="7" > 1956</option><option value="6" > 1955</option><option value="5" > 1954</option><option value="4" > 1953</option><option value="3" > 1952</option><option value="2" > 1951</option><option value="1" > 1950</option></select>    <br><br><a href="/main/m/54/367/-2">Drivers Championship</a><br><a href="/main/m/54/367/-3">Constructors Championship</a><br><a href="/main/m/54/367/-10">Drivers penalty points</a><br><a href="/main/m/54/367/-20">Drivers reprimands</a><br><br>    <a href="/main/m/54/367/12651"> Bahrain</a><div style="font-size:8px; padding-left: 10px; margin:-5px 0 -2px;">28.02.2025</div><a href="/main/m/54/367/12627"> Australia</a><div style="font-size:8px; padding-left: 10px; margin:-5px 0 -2px;">16.03.2025</div><a href="/main/m/54/367/12628"> China</a><div style="font-size:8px; padding-left: 10px; margin:-5px 0 -2px;">23.03.2025</div><a href="/main/m/54/367/12629"> Japan</a><div style="font-size:8px; padding-left: 10px; margin:-5px 0 -2px;">06.04.2025</div><b> Bahrain</b> <div style="font-size:8px; padding-left: 10px; margin:-5px 0 -2px;">13.04.2025</div><a href="/main/m/54/367/12631"> Saudi Arabia</a><div style="font-size:8px; padding-left: 10px; margin:-5px 0 -2px;">20.04.2025</div><a href="/main/m/54/367/12632"> Miami</a><div style="font-size:8px; padding-left: 10px; margin:-5px 0 -2px;">04.05.2025</div><a href="/main/m/54/367/12633"> Emilia Romagna</a><div style="font-size:8px; padding-left: 10px; margin:-5px 0 -2px;">18.05.2025</div><a href="/main/m/54/367/12634"> Monaco</a><div style="font-size:8px; padding-left: 10px; margin:-5px 0 -2px;">25.05.2025</div><a href="/main/m/54/367/12635"> Spain</a><div style="font-size:8px; padding-left: 10px; margin:-5px 0 -2px;">01.06.2025</div><a href="/main/m/54/367/12636"> Canada</a><div style="font-size:8px; padding-left: 10px; margin:-5px 0 -2px;">15.06.2025</div><a href="/main/m/54/367/12637"> Austria</a><div style="font-size:8px; padding-left: 10px; margin:-5px 0 -2px;">29.06.2025</div><a href="/main/m/54/367/12638"> Great Britain</a><div style="font-size:8px; padding-left: 10px; margin:-5px 0 -2px;">06.07.2025</div><a href="/main/m/54/367/12639"> Belgium</a><div style="font-size:8px; padding-left: 10px; margin:-5px 0 -2px;">27.07.2025</div><a href="/main/m/54/367/12640"> Hungary</a><div style="font-size:8px; padding-left: 10px; margin:-5px 0 -2px;">03.08.2025</div><a href="/main/m/54/367/12641"> Netherlands</a><div style="font-size:8px; padding-left: 10px; margin:-5px 0 -2px;">31.08.2025</div><a href="/main/m/54/367/12642"> Italy</a><div style="font-size:8px; padding-left: 10px; margin:-5px 0 -2px;">07.09.2025</div><a href="/main/m/54/367/12643"> Azerbaijan</a><div style="font-size:8px; padding-left: 10px; margin:-5px 0 -2px;">21.09.2025</div><a href="/main/m/54/367/12644"> Singapore</a><div style="font-size:8px; padding-left: 10px; margin:-5px 0 -2px;">05.10.2025</div><a href="/main/m/54/367/12645"> USA</a><div style="font-size:8px; padding-left: 10px; margin:-5px 0 -2px;">19.10.2025</div><a href="/main/m/54/367/12646"> Mexico</a><div style="font-size:8px; padding-left: 10px; margin:-5px 0 -2px;">26.10.2025</div><a href="/main/m/54/367/12647"> Brazil</a><div style="font-size:8px; padding-left: 10px; margin:-5px 0 -2px;">09.11.2025</div><a href="/main/m/54/367/12648"> Las Vegas</a><div style="font-size:8px; padding-left: 10px; margin:-5px 0 -2px;">22.11.2025</div><a href="/main/m/54/367/12649"> Qatar</a><div style="font-size:8px; padding-left: 10px; margin:-5px 0 -2px;">30.11.2025</div><a href="/main/m/54/367/12650"> Abu Dhabi</a><div style="font-size:8px; padding-left: 10px; margin:-5px 0 -2px;">07.12.2025</div><a href="/main/m/54/367/12847"> Abu Dhabi</a><div style="font-size:8px; padding-left: 10px; margin:-5px 0 -2px;">09.12.2025</div></td><td id="td_menu_holder"><!-- vertical menu --></td><td><!-- layout --><h2>4. Bahrain / Gulf Air Bahrain Grand Prix / Sakhir</h2><div id="session_list">  | <a  href="/main/m/54/367/12630/-1">ENTRY LIST</a> | <a  href="/main/m/54/367/12630/56724">P1</a> | <a  href="/main/m/54/367/12630/56725">P2</a> | <a  href="/main/m/54/367/12630/56726">P3</a> | <a  href="/main/m/54/367/12630/56727">Q1</a> | <a  href="/main/m/54/367/12630/56728">Q2</a> | <a  href="/main/m/54/367/12630/56729">Q3</a> | <a  href="/main/m/54/367/12630/56730">GRID</a> | <b >RACE</b> | <a href="/main/m/54/367/12630/56731/2">TYRE HISTORY</a> | <a  href="/main/m/54/367/12630/56732">FASTEST LAPS</a> | <a  href="/main/m/54/367/12630/56733">PIT STOPS</a> | <a  href="/main/m/54/367/12630/56734">SPEEDS</a></div> <br>  <h2>RACE</h2>&nbsp; <a href="/main/m/54/367/12630/56731/3">Data player</a>  &nbsp; <a href="/main/m/54/367/12630/56731/4">LIVE</a>  &nbsp; <a href="/main/m/54/367/12630/56731/5">LIVE 2</a>  &nbsp; <a href="/main/m/54/367/12630/56731/6">LV_5</a>  &nbsp; <a href="/main/m/54/367/12630/56731/7">DP_5</a> &nbsp;<a href="?v=4">Laps times</a><br><table><tr valign="top"><td><table class="results tab_56731" ><tr valign="top"><th align="right">cla</th><th align="left"></th><th align="right">#</th><th align="left">driver</th><th align="left">chassis</th><th align="left">engine</th><th align="right">laps</th><th align="right">time</th><th align="right">gap</th><th align="right">int</th><th align="right">km/h</th><th align="right">pits</th><th align="left">retirement</th><th align="right">pts</th><th align="right">pen</th><th align="right"style="background-color: #fcc">reprim</th><th align="left">tyres change</th><th align="left">b_tyres</th></tr> 
Parsing GP 12631
Skipping incomplete row: <table><tr valign="top"><td><!-- layout --><form action="/main/m/" method="GET" class="sid_find_form"><input id="in_sid" type="text" name="sid" value="56878" title="sid"><button type="submit" title="find by sid">Go</button><button id="b_copy_sid_url" title="copy sid url">Url</button></form><script type="text/javascript">$(function(){$("#b_copy_sid_url").click(function(){var input = $("#in_sid");var sid = input.val();var url = "https://results.motorsport.com//main/m/?sid="+sid;input.val(url);input.select();document.execCommand("copy");input.val(sid);alert('session url copied to clipboard');return false;});});</script><br><select name="series" onchange="window.location.href = '/main/m/'+value"><option value="206" >ASIAN LE MANS</option><option value="30" >BTCC</option><option value="45" >DTM</option><option value="104" >EUROPEAN LE MANS</option><option value="6216" >F1 Academy</option><option value="54"  selected>FORMULA 1</option><option value="208" >FORMULA E</option><option value="73" >GP2</option><option value="74" >GP3</option><option value="211" >GT-MASTERS</option><option value="207" >IMSA</option><option value="87" >INDY LIGHTS</option><option value="86" >INDYCAR</option><option value="212" >MOTO2</option><option value="213" >MOTO3</option><option value="112" >MOTOGP</option><option value="1772" >MX2</option><option value="1771" >MXGP</option><option value="119" >NASCAR SPRINT CUP</option><option value="126" >NASCAR TRUCK</option><option value="124" >NASCAR XFINITY</option><option value="852" >STOCK CAR BRAZIL</option><option value="1101" >SUPER FORMULA</option><option value="172" >SUPER GT</option><option value="6098" >TCR AUSTRALIA</option><option value="18" >V8 SUPERCARS</option><option value="205" >WEC</option><option value="160" >WORLD CHALLENGE</option><option value="210" >WORLD RALLYCROSS</option><option value="194" >WORLD SUPERBIKE</option><option value="193" >WRC</option><option value="5551" >WTCR</option></select><br><br><select name="championship" onchange="window.location.href = '/main/m/54/'+value"><option value="367"  selected> 2025</option><option value="336" > 2024</option><option value="307" > 2023</option><option value="280" > 2022</option><option value="242" > 2021</option><option value="213" > 2020</option><option value="189" > 2019</option><option value="165" > 2018</option><option value="127" > 2017</option><option value="76" > 2016</option><option value="66" > 2015</option><option value="65" > 2014</option><option value="64" > 2013</option><option value="63" > 2012</option><option value="62" > 2011</option><option value="61" > 2010</option><option value="60" > 2009</option><option value="59" > 2008</option><option value="58" > 2007</option><option value="57" > 2006</option><option value="56" > 2005</option><option value="55" > 2004</option><option value="54" > 2003</option><option value="53" > 2002</option><option value="52" > 2001</option><option value="51" > 2000</option><option value="50" > 1999</option><option value="49" > 1998</option><option value="48" > 1997</option><option value="47" > 1996</option><option value="46" > 1995</option><option value="45" > 1994</option><option value="44" > 1993</option><option value="43" > 1992</option><option value="42" > 1991</option><option value="41" > 1990</option><option value="40" > 1989</option><option value="39" > 1988</option><option value="38" > 1987</option><option value="37" > 1986</option><option value="36" > 1985</option><option value="35" > 1984</option><option value="34" > 1983</option><option value="33" > 1982</option><option value="32" > 1981</option><option value="31" > 1980</option><option value="30" > 1979</option><option value="29" > 1978</option><option value="28" > 1977</option><option value="27" > 1976</option><option value="26" > 1975</option><option value="25" > 1974</option><option value="24" > 1973</option><option value="23" > 1972</option><option value="22" > 1971</option><option value="21" > 1970</option><option value="20" > 1969</option><option value="19" > 1968</option><option value="18" > 1967</option><option value="17" > 1966</option><option value="16" > 1965</option><option value="15" > 1964</option><option value="14" > 1963</option><option value="13" > 1962</option><option value="12" > 1961</option><option value="11" > 1960</option><option value="10" > 1959</option><option value="9" > 1958</option><option value="8" > 1957</option><option value="7" > 1956</option><option value="6" > 1955</option><option value="5" > 1954</option><option value="4" > 1953</option><option value="3" > 1952</option><option value="2" > 1951</option><option value="1" > 1950</option></select>    <br><br><a href="/main/m/54/367/-2">Drivers Championship</a><br><a href="/main/m/54/367/-3">Constructors Championship</a><br><a href="/main/m/54/367/-10">Drivers penalty points</a><br><a href="/main/m/54/367/-20">Drivers reprimands</a><br><br>    <a href="/main/m/54/367/12651"> Bahrain</a><div style="font-size:8px; padding-left: 10px; margin:-5px 0 -2px;">28.02.2025</div><a href="/main/m/54/367/12627"> Australia</a><div style="font-size:8px; padding-left: 10px; margin:-5px 0 -2px;">16.03.2025</div><a href="/main/m/54/367/12628"> China</a><div style="font-size:8px; padding-left: 10px; margin:-5px 0 -2px;">23.03.2025</div><a href="/main/m/54/367/12629"> Japan</a><div style="font-size:8px; padding-left: 10px; margin:-5px 0 -2px;">06.04.2025</div><a href="/main/m/54/367/12630"> Bahrain</a><div style="font-size:8px; padding-left: 10px; margin:-5px 0 -2px;">13.04.2025</div><b> Saudi Arabia</b> <div style="font-size:8px; padding-left: 10px; margin:-5px 0 -2px;">20.04.2025</div><a href="/main/m/54/367/12632"> Miami</a><div style="font-size:8px; padding-left: 10px; margin:-5px 0 -2px;">04.05.2025</div><a href="/main/m/54/367/12633"> Emilia Romagna</a><div style="font-size:8px; padding-left: 10px; margin:-5px 0 -2px;">18.05.2025</div><a href="/main/m/54/367/12634"> Monaco</a><div style="font-size:8px; padding-left: 10px; margin:-5px 0 -2px;">25.05.2025</div><a href="/main/m/54/367/12635"> Spain</a><div style="font-size:8px; padding-left: 10px; margin:-5px 0 -2px;">01.06.2025</div><a href="/main/m/54/367/12636"> Canada</a><div style="font-size:8px; padding-left: 10px; margin:-5px 0 -2px;">15.06.2025</div><a href="/main/m/54/367/12637"> Austria</a><div style="font-size:8px; padding-left: 10px; margin:-5px 0 -2px;">29.06.2025</div><a href="/main/m/54/367/12638"> Great Britain</a><div style="font-size:8px; padding-left: 10px; margin:-5px 0 -2px;">06.07.2025</div><a href="/main/m/54/367/12639"> Belgium</a><div style="font-size:8px; padding-left: 10px; margin:-5px 0 -2px;">27.07.2025</div><a href="/main/m/54/367/12640"> Hungary</a><div style="font-size:8px; padding-left: 10px; margin:-5px 0 -2px;">03.08.2025</div><a href="/main/m/54/367/12641"> Netherlands</a><div style="font-size:8px; padding-left: 10px; margin:-5px 0 -2px;">31.08.2025</div><a href="/main/m/54/367/12642"> Italy</a><div style="font-size:8px; padding-left: 10px; margin:-5px 0 -2px;">07.09.2025</div><a href="/main/m/54/367/12643"> Azerbaijan</a><div style="font-size:8px; padding-left: 10px; margin:-5px 0 -2px;">21.09.2025</div><a href="/main/m/54/367/12644"> Singapore</a><div style="font-size:8px; padding-left: 10px; margin:-5px 0 -2px;">05.10.2025</div><a href="/main/m/54/367/12645"> USA</a><div style="font-size:8px; padding-left: 10px; margin:-5px 0 -2px;">19.10.2025</div><a href="/main/m/54/367/12646"> Mexico</a><div style="font-size:8px; padding-left: 10px; margin:-5px 0 -2px;">26.10.2025</div><a href="/main/m/54/367/12647"> Brazil</a><div style="font-size:8px; padding-left: 10px; margin:-5px 0 -2px;">09.11.2025</div><a href="/main/m/54/367/12648"> Las Vegas</a><div style="font-size:8px; padding-left: 10px; margin:-5px 0 -2px;">22.11.2025</div><a href="/main/m/54/367/12649"> Qatar</a><div style="font-size:8px; padding-left: 10px; margin:-5px 0 -2px;">30.11.2025</div><a href="/main/m/54/367/12650"> Abu Dhabi</a><div style="font-size:8px; padding-left: 10px; margin:-5px 0 -2px;">07.12.2025</div><a href="/main/m/54/367/12847"> Abu Dhabi</a><div style="font-size:8px; padding-left: 10px; margin:-5px 0 -2px;">09.12.2025</div></td><td id="td_menu_holder"><!-- vertical menu --></td><td><!-- layout --><h2>5. Saudi Arabia / STC Saudi Arabian Grand Prix / Jeddah Corniche Circuit</h2><div id="session_list">  | <a  href="/main/m/54/367/12631/-1">ENTRY LIST</a> | <a  href="/main/m/54/367/12631/56871">P1</a> | <a  href="/main/m/54/367/12631/56872">P2</a> | <a  href="/main/m/54/367/12631/56873">P3</a> | <a  href="/main/m/54/367/12631/56874">Q1</a> | <a  href="/main/m/54/367/12631/56875">Q2</a> | <a  href="/main/m/54/367/12631/56876">Q3</a> | <a  href="/main/m/54/367/12631/56877">GRID</a> | <b >RACE</b> | <a href="/main/m/54/367/12631/56878/2">TYRE HISTORY</a> | <a  href="/main/m/54/367/12631/56879">FASTEST LAPS</a> | <a  href="/main/m/54/367/12631/56880">PIT STOPS</a> | <a  href="/main/m/54/367/12631/56881">SPEEDS</a></div> <br>  <h2>RACE</h2>&nbsp; <a href="/main/m/54/367/12631/56878/3">Data player</a>  &nbsp; <a href="/main/m/54/367/12631/56878/4">LIVE</a>  &nbsp; <a href="/main/m/54/367/12631/56878/5">LIVE 2</a>  &nbsp; <a href="/main/m/54/367/12631/56878/6">LV_5</a>  &nbsp; <a href="/main/m/54/367/12631/56878/7">DP_5</a> &nbsp;<a href="?v=4">Laps times</a><br><table><tr valign="top"><td><table class="results tab_56878" ><tr valign="top"><th align="right">cla</th><th align="left"></th><th align="right">#</th><th align="left">driver</th><th align="left">chassis</th><th align="left">engine</th><th align="right">laps</th><th align="right">time</th><th align="right">gap</th><th align="right">int</th><th align="right">km/h</th><th align="right">pits</th><th align="left">retirement</th><th align="right">pts</th><th align="right"style="background-color: #fcc">pen</th><th align="right"style="background-color: #fcc">reprim</th><th align="left">tyres change</th><th align="left">b_tyres</th></tr> 
Parsing GP 12632
Skipping incomplete row: <table><tr valign="top"><td><!-- layout --><form action="/main/m/" method="GET" class="sid_find_form"><input id="in_sid" type="text" name="sid" value="57130" title="sid"><button type="submit" title="find by sid">Go</button><button id="b_copy_sid_url" title="copy sid url">Url</button></form><script type="text/javascript">$(function(){$("#b_copy_sid_url").click(function(){var input = $("#in_sid");var sid = input.val();var url = "https://results.motorsport.com//main/m/?sid="+sid;input.val(url);input.select();document.execCommand("copy");input.val(sid);alert('session url copied to clipboard');return false;});});</script><br><select name="series" onchange="window.location.href = '/main/m/'+value"><option value="206" >ASIAN LE MANS</option><option value="30" >BTCC</option><option value="45" >DTM</option><option value="104" >EUROPEAN LE MANS</option><option value="6216" >F1 Academy</option><option value="54"  selected>FORMULA 1</option><option value="208" >FORMULA E</option><option value="73" >GP2</option><option value="74" >GP3</option><option value="211" >GT-MASTERS</option><option value="207" >IMSA</option><option value="87" >INDY LIGHTS</option><option value="86" >INDYCAR</option><option value="212" >MOTO2</option><option value="213" >MOTO3</option><option value="112" >MOTOGP</option><option value="1772" >MX2</option><option value="1771" >MXGP</option><option value="119" >NASCAR SPRINT CUP</option><option value="126" >NASCAR TRUCK</option><option value="124" >NASCAR XFINITY</option><option value="852" >STOCK CAR BRAZIL</option><option value="1101" >SUPER FORMULA</option><option value="172" >SUPER GT</option><option value="6098" >TCR AUSTRALIA</option><option value="18" >V8 SUPERCARS</option><option value="205" >WEC</option><option value="160" >WORLD CHALLENGE</option><option value="210" >WORLD RALLYCROSS</option><option value="194" >WORLD SUPERBIKE</option><option value="193" >WRC</option><option value="5551" >WTCR</option></select><br><br><select name="championship" onchange="window.location.href = '/main/m/54/'+value"><option value="367"  selected> 2025</option><option value="336" > 2024</option><option value="307" > 2023</option><option value="280" > 2022</option><option value="242" > 2021</option><option value="213" > 2020</option><option value="189" > 2019</option><option value="165" > 2018</option><option value="127" > 2017</option><option value="76" > 2016</option><option value="66" > 2015</option><option value="65" > 2014</option><option value="64" > 2013</option><option value="63" > 2012</option><option value="62" > 2011</option><option value="61" > 2010</option><option value="60" > 2009</option><option value="59" > 2008</option><option value="58" > 2007</option><option value="57" > 2006</option><option value="56" > 2005</option><option value="55" > 2004</option><option value="54" > 2003</option><option value="53" > 2002</option><option value="52" > 2001</option><option value="51" > 2000</option><option value="50" > 1999</option><option value="49" > 1998</option><option value="48" > 1997</option><option value="47" > 1996</option><option value="46" > 1995</option><option value="45" > 1994</option><option value="44" > 1993</option><option value="43" > 1992</option><option value="42" > 1991</option><option value="41" > 1990</option><option value="40" > 1989</option><option value="39" > 1988</option><option value="38" > 1987</option><option value="37" > 1986</option><option value="36" > 1985</option><option value="35" > 1984</option><option value="34" > 1983</option><option value="33" > 1982</option><option value="32" > 1981</option><option value="31" > 1980</option><option value="30" > 1979</option><option value="29" > 1978</option><option value="28" > 1977</option><option value="27" > 1976</option><option value="26" > 1975</option><option value="25" > 1974</option><option value="24" > 1973</option><option value="23" > 1972</option><option value="22" > 1971</option><option value="21" > 1970</option><option value="20" > 1969</option><option value="19" > 1968</option><option value="18" > 1967</option><option value="17" > 1966</option><option value="16" > 1965</option><option value="15" > 1964</option><option value="14" > 1963</option><option value="13" > 1962</option><option value="12" > 1961</option><option value="11" > 1960</option><option value="10" > 1959</option><option value="9" > 1958</option><option value="8" > 1957</option><option value="7" > 1956</option><option value="6" > 1955</option><option value="5" > 1954</option><option value="4" > 1953</option><option value="3" > 1952</option><option value="2" > 1951</option><option value="1" > 1950</option></select>    <br><br><a href="/main/m/54/367/-2">Drivers Championship</a><br><a href="/main/m/54/367/-3">Constructors Championship</a><br><a href="/main/m/54/367/-10">Drivers penalty points</a><br><a href="/main/m/54/367/-20">Drivers reprimands</a><br><br>    <a href="/main/m/54/367/12651"> Bahrain</a><div style="font-size:8px; padding-left: 10px; margin:-5px 0 -2px;">28.02.2025</div><a href="/main/m/54/367/12627"> Australia</a><div style="font-size:8px; padding-left: 10px; margin:-5px 0 -2px;">16.03.2025</div><a href="/main/m/54/367/12628"> China</a><div style="font-size:8px; padding-left: 10px; margin:-5px 0 -2px;">23.03.2025</div><a href="/main/m/54/367/12629"> Japan</a><div style="font-size:8px; padding-left: 10px; margin:-5px 0 -2px;">06.04.2025</div><a href="/main/m/54/367/12630"> Bahrain</a><div style="font-size:8px; padding-left: 10px; margin:-5px 0 -2px;">13.04.2025</div><a href="/main/m/54/367/12631"> Saudi Arabia</a><div style="font-size:8px; padding-left: 10px; margin:-5px 0 -2px;">20.04.2025</div><b> Miami</b> <div style="font-size:8px; padding-left: 10px; margin:-5px 0 -2px;">04.05.2025</div><a href="/main/m/54/367/12633"> Emilia Romagna</a><div style="font-size:8px; padding-left: 10px; margin:-5px 0 -2px;">18.05.2025</div><a href="/main/m/54/367/12634"> Monaco</a><div style="font-size:8px; padding-left: 10px; margin:-5px 0 -2px;">25.05.2025</div><a href="/main/m/54/367/12635"> Spain</a><div style="font-size:8px; padding-left: 10px; margin:-5px 0 -2px;">01.06.2025</div><a href="/main/m/54/367/12636"> Canada</a><div style="font-size:8px; padding-left: 10px; margin:-5px 0 -2px;">15.06.2025</div><a href="/main/m/54/367/12637"> Austria</a><div style="font-size:8px; padding-left: 10px; margin:-5px 0 -2px;">29.06.2025</div><a href="/main/m/54/367/12638"> Great Britain</a><div style="font-size:8px; padding-left: 10px; margin:-5px 0 -2px;">06.07.2025</div><a href="/main/m/54/367/12639"> Belgium</a><div style="font-size:8px; padding-left: 10px; margin:-5px 0 -2px;">27.07.2025</div><a href="/main/m/54/367/12640"> Hungary</a><div style="font-size:8px; padding-left: 10px; margin:-5px 0 -2px;">03.08.2025</div><a href="/main/m/54/367/12641"> Netherlands</a><div style="font-size:8px; padding-left: 10px; margin:-5px 0 -2px;">31.08.2025</div><a href="/main/m/54/367/12642"> Italy</a><div style="font-size:8px; padding-left: 10px; margin:-5px 0 -2px;">07.09.2025</div><a href="/main/m/54/367/12643"> Azerbaijan</a><div style="font-size:8px; padding-left: 10px; margin:-5px 0 -2px;">21.09.2025</div><a href="/main/m/54/367/12644"> Singapore</a><div style="font-size:8px; padding-left: 10px; margin:-5px 0 -2px;">05.10.2025</div><a href="/main/m/54/367/12645"> USA</a><div style="font-size:8px; padding-left: 10px; margin:-5px 0 -2px;">19.10.2025</div><a href="/main/m/54/367/12646"> Mexico</a><div style="font-size:8px; padding-left: 10px; margin:-5px 0 -2px;">26.10.2025</div><a href="/main/m/54/367/12647"> Brazil</a><div style="font-size:8px; padding-left: 10px; margin:-5px 0 -2px;">09.11.2025</div><a href="/main/m/54/367/12648"> Las Vegas</a><div style="font-size:8px; padding-left: 10px; margin:-5px 0 -2px;">22.11.2025</div><a href="/main/m/54/367/12649"> Qatar</a><div style="font-size:8px; padding-left: 10px; margin:-5px 0 -2px;">30.11.2025</div><a href="/main/m/54/367/12650"> Abu Dhabi</a><div style="font-size:8px; padding-left: 10px; margin:-5px 0 -2px;">07.12.2025</div><a href="/main/m/54/367/12847"> Abu Dhabi</a><div style="font-size:8px; padding-left: 10px; margin:-5px 0 -2px;">09.12.2025</div></td><td id="td_menu_holder"><!-- vertical menu --></td><td><!-- layout --><h2>6. Miami / crypto.com Miami Grand Prix / Miami International Autodrome</h2><div id="session_list">  | <a  href="/main/m/54/367/12632/-1">ENTRY LIST</a> | <a  href="/main/m/54/367/12632/57119">P1</a> | <a  href="/main/m/54/367/12632/57120">SQ1</a> | <a  href="/main/m/54/367/12632/57121">SQ2</a> | <a  href="/main/m/54/367/12632/57122">SQ3</a> | <a  href="/main/m/54/367/12632/57123">SPR GRID</a> | <a  href="/main/m/54/367/12632/57124">SPR</a> | <a  href="/main/m/54/367/12632/57125">SPR FL</a> | <a  href="/main/m/54/367/12632/57126">Q1</a> | <a  href="/main/m/54/367/12632/57127">Q2</a> | <a  href="/main/m/54/367/12632/57128">Q3</a> | <a  href="/main/m/54/367/12632/57129">GRID</a> | <b >RACE</b> | <a href="/main/m/54/367/12632/57130/2">TYRE HISTORY</a> | <a  href="/main/m/54/367/12632/57131">FASTEST LAPS</a> | <a  href="/main/m/54/367/12632/57132">PIT STOPS</a> | <a  href="/main/m/54/367/12632/57133">SPEEDS</a></div> <br>  <h2>RACE</h2>&nbsp; <a href="/main/m/54/367/12632/57130/3">Data player</a>  &nbsp; <a href="/main/m/54/367/12632/57130/4">LIVE</a>  &nbsp; <a href="/main/m/54/367/12632/57130/5">LIVE 2</a>  &nbsp; <a href="/main/m/54/367/12632/57130/6">LV_5</a>  &nbsp; <a href="/main/m/54/367/12632/57130/7">DP_5</a> &nbsp;<a href="?v=4">Laps times</a><br><table><tr valign="top"><td><table class="results tab_57130" ><tr valign="top"><th align="right">cla</th><th align="left"></th><th align="right">#</th><th align="left">driver</th><th align="left">chassis</th><th align="left">engine</th><th align="right">laps</th><th align="right">time</th><th align="right">gap</th><th align="right">int</th><th align="right">km/h</th><th align="right">pits</th><th align="left">retirement</th><th align="right">pts</th><th align="right"style="background-color: #fcc">pen</th><th align="right"style="background-color: #fcc">reprim</th><th align="left">tyres change</th><th align="left">b_tyres</th></tr> 
Parsing GP 12633
Skipping incomplete row: <table><tr valign="top"><td><!-- layout --><form action="/main/m/" method="GET" class="sid_find_form"><input id="in_sid" type="text" name="sid" value="57351" title="sid"><button type="submit" title="find by sid">Go</button><button id="b_copy_sid_url" title="copy sid url">Url</button></form><script type="text/javascript">$(function(){$("#b_copy_sid_url").click(function(){var input = $("#in_sid");var sid = input.val();var url = "https://results.motorsport.com//main/m/?sid="+sid;input.val(url);input.select();document.execCommand("copy");input.val(sid);alert('session url copied to clipboard');return false;});});</script><br><select name="series" onchange="window.location.href = '/main/m/'+value"><option value="206" >ASIAN LE MANS</option><option value="30" >BTCC</option><option value="45" >DTM</option><option value="104" >EUROPEAN LE MANS</option><option value="6216" >F1 Academy</option><option value="54"  selected>FORMULA 1</option><option value="208" >FORMULA E</option><option value="73" >GP2</option><option value="74" >GP3</option><option value="211" >GT-MASTERS</option><option value="207" >IMSA</option><option value="87" >INDY LIGHTS</option><option value="86" >INDYCAR</option><option value="212" >MOTO2</option><option value="213" >MOTO3</option><option value="112" >MOTOGP</option><option value="1772" >MX2</option><option value="1771" >MXGP</option><option value="119" >NASCAR SPRINT CUP</option><option value="126" >NASCAR TRUCK</option><option value="124" >NASCAR XFINITY</option><option value="852" >STOCK CAR BRAZIL</option><option value="1101" >SUPER FORMULA</option><option value="172" >SUPER GT</option><option value="6098" >TCR AUSTRALIA</option><option value="18" >V8 SUPERCARS</option><option value="205" >WEC</option><option value="160" >WORLD CHALLENGE</option><option value="210" >WORLD RALLYCROSS</option><option value="194" >WORLD SUPERBIKE</option><option value="193" >WRC</option><option value="5551" >WTCR</option></select><br><br><select name="championship" onchange="window.location.href = '/main/m/54/'+value"><option value="367"  selected> 2025</option><option value="336" > 2024</option><option value="307" > 2023</option><option value="280" > 2022</option><option value="242" > 2021</option><option value="213" > 2020</option><option value="189" > 2019</option><option value="165" > 2018</option><option value="127" > 2017</option><option value="76" > 2016</option><option value="66" > 2015</option><option value="65" > 2014</option><option value="64" > 2013</option><option value="63" > 2012</option><option value="62" > 2011</option><option value="61" > 2010</option><option value="60" > 2009</option><option value="59" > 2008</option><option value="58" > 2007</option><option value="57" > 2006</option><option value="56" > 2005</option><option value="55" > 2004</option><option value="54" > 2003</option><option value="53" > 2002</option><option value="52" > 2001</option><option value="51" > 2000</option><option value="50" > 1999</option><option value="49" > 1998</option><option value="48" > 1997</option><option value="47" > 1996</option><option value="46" > 1995</option><option value="45" > 1994</option><option value="44" > 1993</option><option value="43" > 1992</option><option value="42" > 1991</option><option value="41" > 1990</option><option value="40" > 1989</option><option value="39" > 1988</option><option value="38" > 1987</option><option value="37" > 1986</option><option value="36" > 1985</option><option value="35" > 1984</option><option value="34" > 1983</option><option value="33" > 1982</option><option value="32" > 1981</option><option value="31" > 1980</option><option value="30" > 1979</option><option value="29" > 1978</option><option value="28" > 1977</option><option value="27" > 1976</option><option value="26" > 1975</option><option value="25" > 1974</option><option value="24" > 1973</option><option value="23" > 1972</option><option value="22" > 1971</option><option value="21" > 1970</option><option value="20" > 1969</option><option value="19" > 1968</option><option value="18" > 1967</option><option value="17" > 1966</option><option value="16" > 1965</option><option value="15" > 1964</option><option value="14" > 1963</option><option value="13" > 1962</option><option value="12" > 1961</option><option value="11" > 1960</option><option value="10" > 1959</option><option value="9" > 1958</option><option value="8" > 1957</option><option value="7" > 1956</option><option value="6" > 1955</option><option value="5" > 1954</option><option value="4" > 1953</option><option value="3" > 1952</option><option value="2" > 1951</option><option value="1" > 1950</option></select>    <br><br><a href="/main/m/54/367/-2">Drivers Championship</a><br><a href="/main/m/54/367/-3">Constructors Championship</a><br><a href="/main/m/54/367/-10">Drivers penalty points</a><br><a href="/main/m/54/367/-20">Drivers reprimands</a><br><br>    <a href="/main/m/54/367/12651"> Bahrain</a><div style="font-size:8px; padding-left: 10px; margin:-5px 0 -2px;">28.02.2025</div><a href="/main/m/54/367/12627"> Australia</a><div style="font-size:8px; padding-left: 10px; margin:-5px 0 -2px;">16.03.2025</div><a href="/main/m/54/367/12628"> China</a><div style="font-size:8px; padding-left: 10px; margin:-5px 0 -2px;">23.03.2025</div><a href="/main/m/54/367/12629"> Japan</a><div style="font-size:8px; padding-left: 10px; margin:-5px 0 -2px;">06.04.2025</div><a href="/main/m/54/367/12630"> Bahrain</a><div style="font-size:8px; padding-left: 10px; margin:-5px 0 -2px;">13.04.2025</div><a href="/main/m/54/367/12631"> Saudi Arabia</a><div style="font-size:8px; padding-left: 10px; margin:-5px 0 -2px;">20.04.2025</div><a href="/main/m/54/367/12632"> Miami</a><div style="font-size:8px; padding-left: 10px; margin:-5px 0 -2px;">04.05.2025</div><b> Emilia Romagna</b> <div style="font-size:8px; padding-left: 10px; margin:-5px 0 -2px;">18.05.2025</div><a href="/main/m/54/367/12634"> Monaco</a><div style="font-size:8px; padding-left: 10px; margin:-5px 0 -2px;">25.05.2025</div><a href="/main/m/54/367/12635"> Spain</a><div style="font-size:8px; padding-left: 10px; margin:-5px 0 -2px;">01.06.2025</div><a href="/main/m/54/367/12636"> Canada</a><div style="font-size:8px; padding-left: 10px; margin:-5px 0 -2px;">15.06.2025</div><a href="/main/m/54/367/12637"> Austria</a><div style="font-size:8px; padding-left: 10px; margin:-5px 0 -2px;">29.06.2025</div><a href="/main/m/54/367/12638"> Great Britain</a><div style="font-size:8px; padding-left: 10px; margin:-5px 0 -2px;">06.07.2025</div><a href="/main/m/54/367/12639"> Belgium</a><div style="font-size:8px; padding-left: 10px; margin:-5px 0 -2px;">27.07.2025</div><a href="/main/m/54/367/12640"> Hungary</a><div style="font-size:8px; padding-left: 10px; margin:-5px 0 -2px;">03.08.2025</div><a href="/main/m/54/367/12641"> Netherlands</a><div style="font-size:8px; padding-left: 10px; margin:-5px 0 -2px;">31.08.2025</div><a href="/main/m/54/367/12642"> Italy</a><div style="font-size:8px; padding-left: 10px; margin:-5px 0 -2px;">07.09.2025</div><a href="/main/m/54/367/12643"> Azerbaijan</a><div style="font-size:8px; padding-left: 10px; margin:-5px 0 -2px;">21.09.2025</div><a href="/main/m/54/367/12644"> Singapore</a><div style="font-size:8px; padding-left: 10px; margin:-5px 0 -2px;">05.10.2025</div><a href="/main/m/54/367/12645"> USA</a><div style="font-size:8px; padding-left: 10px; margin:-5px 0 -2px;">19.10.2025</div><a href="/main/m/54/367/12646"> Mexico</a><div style="font-size:8px; padding-left: 10px; margin:-5px 0 -2px;">26.10.2025</div><a href="/main/m/54/367/12647"> Brazil</a><div style="font-size:8px; padding-left: 10px; margin:-5px 0 -2px;">09.11.2025</div><a href="/main/m/54/367/12648"> Las Vegas</a><div style="font-size:8px; padding-left: 10px; margin:-5px 0 -2px;">22.11.2025</div><a href="/main/m/54/367/12649"> Qatar</a><div style="font-size:8px; padding-left: 10px; margin:-5px 0 -2px;">30.11.2025</div><a href="/main/m/54/367/12650"> Abu Dhabi</a><div style="font-size:8px; padding-left: 10px; margin:-5px 0 -2px;">07.12.2025</div><a href="/main/m/54/367/12847"> Abu Dhabi</a><div style="font-size:8px; padding-left: 10px; margin:-5px 0 -2px;">09.12.2025</div></td><td id="td_menu_holder"><!-- vertical menu --></td><td><!-- layout --><h2>7. Emilia Romagna / Emilia Romagna / Imola</h2><div id="session_list">  | <a  href="/main/m/54/367/12633/-1">ENTRY LIST</a> | <a  href="/main/m/54/367/12633/57344">P1</a> | <a  href="/main/m/54/367/12633/57345">P2</a> | <a  href="/main/m/54/367/12633/57346">P3</a> | <a  href="/main/m/54/367/12633/57347">Q1</a> | <a  href="/main/m/54/367/12633/57348">Q2</a> | <a  href="/main/m/54/367/12633/57349">Q3</a> | <a  href="/main/m/54/367/12633/57350">GRID</a> | <b >RACE</b> | <a href="/main/m/54/367/12633/57351/2">TYRE HISTORY</a> | <a  href="/main/m/54/367/12633/57352">FASTEST LAPS</a> | <a  href="/main/m/54/367/12633/57353">PIT STOPS</a> | <a  href="/main/m/54/367/12633/57354">SPEEDS</a></div> <br>  <h2>RACE</h2>&nbsp; <a href="/main/m/54/367/12633/57351/3">Data player</a>  &nbsp; <a href="/main/m/54/367/12633/57351/4">LIVE</a>  &nbsp; <a href="/main/m/54/367/12633/57351/5">LIVE 2</a>  &nbsp; <a href="/main/m/54/367/12633/57351/6">LV_5</a>  &nbsp; <a href="/main/m/54/367/12633/57351/7">DP_5</a> &nbsp;<a href="?v=4">Laps times</a><br><table><tr valign="top"><td><table class="results tab_57351" ><tr valign="top"><th align="right">cla</th><th align="left"></th><th align="right">#</th><th align="left">driver</th><th align="left">chassis</th><th align="left">engine</th><th align="right">laps</th><th align="right">time</th><th align="right">gap</th><th align="right">int</th><th align="right">km/h</th><th align="right"style="background-color: #fcc">pits</th><th align="left">retirement</th><th align="right">pts</th><th align="right"style="background-color: #fcc">pen</th><th align="right"style="background-color: #fcc">reprim</th><th align="left"style="background-color: #fcc">tyres change</th><th align="left"style="background-color: #fcc">b_tyres</th></tr> 
Parsing GP 12634
Skipping incomplete row: <table><tr valign="top"><td><!-- layout --><form action="/main/m/" method="GET" class="sid_find_form"><input id="in_sid" type="text" name="sid" value="57489" title="sid"><button type="submit" title="find by sid">Go</button><button id="b_copy_sid_url" title="copy sid url">Url</button></form><script type="text/javascript">$(function(){$("#b_copy_sid_url").click(function(){var input = $("#in_sid");var sid = input.val();var url = "https://results.motorsport.com//main/m/?sid="+sid;input.val(url);input.select();document.execCommand("copy");input.val(sid);alert('session url copied to clipboard');return false;});});</script><br><select name="series" onchange="window.location.href = '/main/m/'+value"><option value="206" >ASIAN LE MANS</option><option value="30" >BTCC</option><option value="45" >DTM</option><option value="104" >EUROPEAN LE MANS</option><option value="6216" >F1 Academy</option><option value="54"  selected>FORMULA 1</option><option value="208" >FORMULA E</option><option value="73" >GP2</option><option value="74" >GP3</option><option value="211" >GT-MASTERS</option><option value="207" >IMSA</option><option value="87" >INDY LIGHTS</option><option value="86" >INDYCAR</option><option value="212" >MOTO2</option><option value="213" >MOTO3</option><option value="112" >MOTOGP</option><option value="1772" >MX2</option><option value="1771" >MXGP</option><option value="119" >NASCAR SPRINT CUP</option><option value="126" >NASCAR TRUCK</option><option value="124" >NASCAR XFINITY</option><option value="852" >STOCK CAR BRAZIL</option><option value="1101" >SUPER FORMULA</option><option value="172" >SUPER GT</option><option value="6098" >TCR AUSTRALIA</option><option value="18" >V8 SUPERCARS</option><option value="205" >WEC</option><option value="160" >WORLD CHALLENGE</option><option value="210" >WORLD RALLYCROSS</option><option value="194" >WORLD SUPERBIKE</option><option value="193" >WRC</option><option value="5551" >WTCR</option></select><br><br><select name="championship" onchange="window.location.href = '/main/m/54/'+value"><option value="367"  selected> 2025</option><option value="336" > 2024</option><option value="307" > 2023</option><option value="280" > 2022</option><option value="242" > 2021</option><option value="213" > 2020</option><option value="189" > 2019</option><option value="165" > 2018</option><option value="127" > 2017</option><option value="76" > 2016</option><option value="66" > 2015</option><option value="65" > 2014</option><option value="64" > 2013</option><option value="63" > 2012</option><option value="62" > 2011</option><option value="61" > 2010</option><option value="60" > 2009</option><option value="59" > 2008</option><option value="58" > 2007</option><option value="57" > 2006</option><option value="56" > 2005</option><option value="55" > 2004</option><option value="54" > 2003</option><option value="53" > 2002</option><option value="52" > 2001</option><option value="51" > 2000</option><option value="50" > 1999</option><option value="49" > 1998</option><option value="48" > 1997</option><option value="47" > 1996</option><option value="46" > 1995</option><option value="45" > 1994</option><option value="44" > 1993</option><option value="43" > 1992</option><option value="42" > 1991</option><option value="41" > 1990</option><option value="40" > 1989</option><option value="39" > 1988</option><option value="38" > 1987</option><option value="37" > 1986</option><option value="36" > 1985</option><option value="35" > 1984</option><option value="34" > 1983</option><option value="33" > 1982</option><option value="32" > 1981</option><option value="31" > 1980</option><option value="30" > 1979</option><option value="29" > 1978</option><option value="28" > 1977</option><option value="27" > 1976</option><option value="26" > 1975</option><option value="25" > 1974</option><option value="24" > 1973</option><option value="23" > 1972</option><option value="22" > 1971</option><option value="21" > 1970</option><option value="20" > 1969</option><option value="19" > 1968</option><option value="18" > 1967</option><option value="17" > 1966</option><option value="16" > 1965</option><option value="15" > 1964</option><option value="14" > 1963</option><option value="13" > 1962</option><option value="12" > 1961</option><option value="11" > 1960</option><option value="10" > 1959</option><option value="9" > 1958</option><option value="8" > 1957</option><option value="7" > 1956</option><option value="6" > 1955</option><option value="5" > 1954</option><option value="4" > 1953</option><option value="3" > 1952</option><option value="2" > 1951</option><option value="1" > 1950</option></select>    <br><br><a href="/main/m/54/367/-2">Drivers Championship</a><br><a href="/main/m/54/367/-3">Constructors Championship</a><br><a href="/main/m/54/367/-10">Drivers penalty points</a><br><a href="/main/m/54/367/-20">Drivers reprimands</a><br><br>    <a href="/main/m/54/367/12651"> Bahrain</a><div style="font-size:8px; padding-left: 10px; margin:-5px 0 -2px;">28.02.2025</div><a href="/main/m/54/367/12627"> Australia</a><div style="font-size:8px; padding-left: 10px; margin:-5px 0 -2px;">16.03.2025</div><a href="/main/m/54/367/12628"> China</a><div style="font-size:8px; padding-left: 10px; margin:-5px 0 -2px;">23.03.2025</div><a href="/main/m/54/367/12629"> Japan</a><div style="font-size:8px; padding-left: 10px; margin:-5px 0 -2px;">06.04.2025</div><a href="/main/m/54/367/12630"> Bahrain</a><div style="font-size:8px; padding-left: 10px; margin:-5px 0 -2px;">13.04.2025</div><a href="/main/m/54/367/12631"> Saudi Arabia</a><div style="font-size:8px; padding-left: 10px; margin:-5px 0 -2px;">20.04.2025</div><a href="/main/m/54/367/12632"> Miami</a><div style="font-size:8px; padding-left: 10px; margin:-5px 0 -2px;">04.05.2025</div><a href="/main/m/54/367/12633"> Emilia Romagna</a><div style="font-size:8px; padding-left: 10px; margin:-5px 0 -2px;">18.05.2025</div><b> Monaco</b> <div style="font-size:8px; padding-left: 10px; margin:-5px 0 -2px;">25.05.2025</div><a href="/main/m/54/367/12635"> Spain</a><div style="font-size:8px; padding-left: 10px; margin:-5px 0 -2px;">01.06.2025</div><a href="/main/m/54/367/12636"> Canada</a><div style="font-size:8px; padding-left: 10px; margin:-5px 0 -2px;">15.06.2025</div><a href="/main/m/54/367/12637"> Austria</a><div style="font-size:8px; padding-left: 10px; margin:-5px 0 -2px;">29.06.2025</div><a href="/main/m/54/367/12638"> Great Britain</a><div style="font-size:8px; padding-left: 10px; margin:-5px 0 -2px;">06.07.2025</div><a href="/main/m/54/367/12639"> Belgium</a><div style="font-size:8px; padding-left: 10px; margin:-5px 0 -2px;">27.07.2025</div><a href="/main/m/54/367/12640"> Hungary</a><div style="font-size:8px; padding-left: 10px; margin:-5px 0 -2px;">03.08.2025</div><a href="/main/m/54/367/12641"> Netherlands</a><div style="font-size:8px; padding-left: 10px; margin:-5px 0 -2px;">31.08.2025</div><a href="/main/m/54/367/12642"> Italy</a><div style="font-size:8px; padding-left: 10px; margin:-5px 0 -2px;">07.09.2025</div><a href="/main/m/54/367/12643"> Azerbaijan</a><div style="font-size:8px; padding-left: 10px; margin:-5px 0 -2px;">21.09.2025</div><a href="/main/m/54/367/12644"> Singapore</a><div style="font-size:8px; padding-left: 10px; margin:-5px 0 -2px;">05.10.2025</div><a href="/main/m/54/367/12645"> USA</a><div style="font-size:8px; padding-left: 10px; margin:-5px 0 -2px;">19.10.2025</div><a href="/main/m/54/367/12646"> Mexico</a><div style="font-size:8px; padding-left: 10px; margin:-5px 0 -2px;">26.10.2025</div><a href="/main/m/54/367/12647"> Brazil</a><div style="font-size:8px; padding-left: 10px; margin:-5px 0 -2px;">09.11.2025</div><a href="/main/m/54/367/12648"> Las Vegas</a><div style="font-size:8px; padding-left: 10px; margin:-5px 0 -2px;">22.11.2025</div><a href="/main/m/54/367/12649"> Qatar</a><div style="font-size:8px; padding-left: 10px; margin:-5px 0 -2px;">30.11.2025</div><a href="/main/m/54/367/12650"> Abu Dhabi</a><div style="font-size:8px; padding-left: 10px; margin:-5px 0 -2px;">07.12.2025</div><a href="/main/m/54/367/12847"> Abu Dhabi</a><div style="font-size:8px; padding-left: 10px; margin:-5px 0 -2px;">09.12.2025</div></td><td id="td_menu_holder"><!-- vertical menu --></td><td><!-- layout --><h2>8. Monaco / Grand Prix de Monaco / Monte Carlo</h2><div id="session_list">  | <a  href="/main/m/54/367/12634/-1">ENTRY LIST</a> | <a  href="/main/m/54/367/12634/57482">P1</a> | <a  href="/main/m/54/367/12634/57483">P2</a> | <a  href="/main/m/54/367/12634/57484">P3</a> | <a  href="/main/m/54/367/12634/57485">Q1</a> | <a  href="/main/m/54/367/12634/57486">Q2</a> | <a  href="/main/m/54/367/12634/57487">Q3</a> | <a  href="/main/m/54/367/12634/57488">GRID</a> | <b >RACE</b> | <a href="/main/m/54/367/12634/57489/2">TYRE HISTORY</a> | <a  href="/main/m/54/367/12634/57490">FASTEST LAPS</a> | <a  href="/main/m/54/367/12634/57491">PIT STOPS</a> | <a  href="/main/m/54/367/12634/57492">SPEEDS</a></div> <br>  <h2>RACE</h2>&nbsp; <a href="/main/m/54/367/12634/57489/3">Data player</a>  &nbsp; <a href="/main/m/54/367/12634/57489/4">LIVE</a>  &nbsp; <a href="/main/m/54/367/12634/57489/5">LIVE 2</a>  &nbsp; <a href="/main/m/54/367/12634/57489/6">LV_5</a>  &nbsp; <a href="/main/m/54/367/12634/57489/7">DP_5</a> &nbsp;<a href="?v=4">Laps times</a><br><table><tr valign="top"><td><table class="results tab_57489" ><tr valign="top"><th align="right">cla</th><th align="left"></th><th align="right">#</th><th align="left">driver</th><th align="left">chassis</th><th align="left">engine</th><th align="right">laps</th><th align="right">time</th><th align="right">gap</th><th align="right">int</th><th align="right">km/h</th><th align="right">pits</th><th align="left">retirement</th><th align="right">pts</th><th align="right"style="background-color: #fcc">pen</th><th align="right">reprim</th><th align="left">tyres change</th><th align="left">b_tyres</th></tr> 
Parsing GP 12635
Skipping incomplete row: <table><tr valign="top"><td><!-- layout --><form action="/main/m/" method="GET" class="sid_find_form"><input id="in_sid" type="text" name="sid" value="57603" title="sid"><button type="submit" title="find by sid">Go</button><button id="b_copy_sid_url" title="copy sid url">Url</button></form><script type="text/javascript">$(function(){$("#b_copy_sid_url").click(function(){var input = $("#in_sid");var sid = input.val();var url = "https://results.motorsport.com//main/m/?sid="+sid;input.val(url);input.select();document.execCommand("copy");input.val(sid);alert('session url copied to clipboard');return false;});});</script><br><select name="series" onchange="window.location.href = '/main/m/'+value"><option value="206" >ASIAN LE MANS</option><option value="30" >BTCC</option><option value="45" >DTM</option><option value="104" >EUROPEAN LE MANS</option><option value="6216" >F1 Academy</option><option value="54"  selected>FORMULA 1</option><option value="208" >FORMULA E</option><option value="73" >GP2</option><option value="74" >GP3</option><option value="211" >GT-MASTERS</option><option value="207" >IMSA</option><option value="87" >INDY LIGHTS</option><option value="86" >INDYCAR</option><option value="212" >MOTO2</option><option value="213" >MOTO3</option><option value="112" >MOTOGP</option><option value="1772" >MX2</option><option value="1771" >MXGP</option><option value="119" >NASCAR SPRINT CUP</option><option value="126" >NASCAR TRUCK</option><option value="124" >NASCAR XFINITY</option><option value="852" >STOCK CAR BRAZIL</option><option value="1101" >SUPER FORMULA</option><option value="172" >SUPER GT</option><option value="6098" >TCR AUSTRALIA</option><option value="18" >V8 SUPERCARS</option><option value="205" >WEC</option><option value="160" >WORLD CHALLENGE</option><option value="210" >WORLD RALLYCROSS</option><option value="194" >WORLD SUPERBIKE</option><option value="193" >WRC</option><option value="5551" >WTCR</option></select><br><br><select name="championship" onchange="window.location.href = '/main/m/54/'+value"><option value="367"  selected> 2025</option><option value="336" > 2024</option><option value="307" > 2023</option><option value="280" > 2022</option><option value="242" > 2021</option><option value="213" > 2020</option><option value="189" > 2019</option><option value="165" > 2018</option><option value="127" > 2017</option><option value="76" > 2016</option><option value="66" > 2015</option><option value="65" > 2014</option><option value="64" > 2013</option><option value="63" > 2012</option><option value="62" > 2011</option><option value="61" > 2010</option><option value="60" > 2009</option><option value="59" > 2008</option><option value="58" > 2007</option><option value="57" > 2006</option><option value="56" > 2005</option><option value="55" > 2004</option><option value="54" > 2003</option><option value="53" > 2002</option><option value="52" > 2001</option><option value="51" > 2000</option><option value="50" > 1999</option><option value="49" > 1998</option><option value="48" > 1997</option><option value="47" > 1996</option><option value="46" > 1995</option><option value="45" > 1994</option><option value="44" > 1993</option><option value="43" > 1992</option><option value="42" > 1991</option><option value="41" > 1990</option><option value="40" > 1989</option><option value="39" > 1988</option><option value="38" > 1987</option><option value="37" > 1986</option><option value="36" > 1985</option><option value="35" > 1984</option><option value="34" > 1983</option><option value="33" > 1982</option><option value="32" > 1981</option><option value="31" > 1980</option><option value="30" > 1979</option><option value="29" > 1978</option><option value="28" > 1977</option><option value="27" > 1976</option><option value="26" > 1975</option><option value="25" > 1974</option><option value="24" > 1973</option><option value="23" > 1972</option><option value="22" > 1971</option><option value="21" > 1970</option><option value="20" > 1969</option><option value="19" > 1968</option><option value="18" > 1967</option><option value="17" > 1966</option><option value="16" > 1965</option><option value="15" > 1964</option><option value="14" > 1963</option><option value="13" > 1962</option><option value="12" > 1961</option><option value="11" > 1960</option><option value="10" > 1959</option><option value="9" > 1958</option><option value="8" > 1957</option><option value="7" > 1956</option><option value="6" > 1955</option><option value="5" > 1954</option><option value="4" > 1953</option><option value="3" > 1952</option><option value="2" > 1951</option><option value="1" > 1950</option></select>    <br><br><a href="/main/m/54/367/-2">Drivers Championship</a><br><a href="/main/m/54/367/-3">Constructors Championship</a><br><a href="/main/m/54/367/-10">Drivers penalty points</a><br><a href="/main/m/54/367/-20">Drivers reprimands</a><br><br>    <a href="/main/m/54/367/12651"> Bahrain</a><div style="font-size:8px; padding-left: 10px; margin:-5px 0 -2px;">28.02.2025</div><a href="/main/m/54/367/12627"> Australia</a><div style="font-size:8px; padding-left: 10px; margin:-5px 0 -2px;">16.03.2025</div><a href="/main/m/54/367/12628"> China</a><div style="font-size:8px; padding-left: 10px; margin:-5px 0 -2px;">23.03.2025</div><a href="/main/m/54/367/12629"> Japan</a><div style="font-size:8px; padding-left: 10px; margin:-5px 0 -2px;">06.04.2025</div><a href="/main/m/54/367/12630"> Bahrain</a><div style="font-size:8px; padding-left: 10px; margin:-5px 0 -2px;">13.04.2025</div><a href="/main/m/54/367/12631"> Saudi Arabia</a><div style="font-size:8px; padding-left: 10px; margin:-5px 0 -2px;">20.04.2025</div><a href="/main/m/54/367/12632"> Miami</a><div style="font-size:8px; padding-left: 10px; margin:-5px 0 -2px;">04.05.2025</div><a href="/main/m/54/367/12633"> Emilia Romagna</a><div style="font-size:8px; padding-left: 10px; margin:-5px 0 -2px;">18.05.2025</div><a href="/main/m/54/367/12634"> Monaco</a><div style="font-size:8px; padding-left: 10px; margin:-5px 0 -2px;">25.05.2025</div><b> Spain</b> <div style="font-size:8px; padding-left: 10px; margin:-5px 0 -2px;">01.06.2025</div><a href="/main/m/54/367/12636"> Canada</a><div style="font-size:8px; padding-left: 10px; margin:-5px 0 -2px;">15.06.2025</div><a href="/main/m/54/367/12637"> Austria</a><div style="font-size:8px; padding-left: 10px; margin:-5px 0 -2px;">29.06.2025</div><a href="/main/m/54/367/12638"> Great Britain</a><div style="font-size:8px; padding-left: 10px; margin:-5px 0 -2px;">06.07.2025</div><a href="/main/m/54/367/12639"> Belgium</a><div style="font-size:8px; padding-left: 10px; margin:-5px 0 -2px;">27.07.2025</div><a href="/main/m/54/367/12640"> Hungary</a><div style="font-size:8px; padding-left: 10px; margin:-5px 0 -2px;">03.08.2025</div><a href="/main/m/54/367/12641"> Netherlands</a><div style="font-size:8px; padding-left: 10px; margin:-5px 0 -2px;">31.08.2025</div><a href="/main/m/54/367/12642"> Italy</a><div style="font-size:8px; padding-left: 10px; margin:-5px 0 -2px;">07.09.2025</div><a href="/main/m/54/367/12643"> Azerbaijan</a><div style="font-size:8px; padding-left: 10px; margin:-5px 0 -2px;">21.09.2025</div><a href="/main/m/54/367/12644"> Singapore</a><div style="font-size:8px; padding-left: 10px; margin:-5px 0 -2px;">05.10.2025</div><a href="/main/m/54/367/12645"> USA</a><div style="font-size:8px; padding-left: 10px; margin:-5px 0 -2px;">19.10.2025</div><a href="/main/m/54/367/12646"> Mexico</a><div style="font-size:8px; padding-left: 10px; margin:-5px 0 -2px;">26.10.2025</div><a href="/main/m/54/367/12647"> Brazil</a><div style="font-size:8px; padding-left: 10px; margin:-5px 0 -2px;">09.11.2025</div><a href="/main/m/54/367/12648"> Las Vegas</a><div style="font-size:8px; padding-left: 10px; margin:-5px 0 -2px;">22.11.2025</div><a href="/main/m/54/367/12649"> Qatar</a><div style="font-size:8px; padding-left: 10px; margin:-5px 0 -2px;">30.11.2025</div><a href="/main/m/54/367/12650"> Abu Dhabi</a><div style="font-size:8px; padding-left: 10px; margin:-5px 0 -2px;">07.12.2025</div><a href="/main/m/54/367/12847"> Abu Dhabi</a><div style="font-size:8px; padding-left: 10px; margin:-5px 0 -2px;">09.12.2025</div></td><td id="td_menu_holder"><!-- vertical menu --></td><td><!-- layout --><h2>9. Spain / AWS Gran Premio de Espaa / Catalunya Montmelo</h2><div id="session_list">  | <a  href="/main/m/54/367/12635/-1">ENTRY LIST</a> | <a  href="/main/m/54/367/12635/57596">P1</a> | <a  href="/main/m/54/367/12635/57597">P2</a> | <a  href="/main/m/54/367/12635/57598">P3</a> | <a  href="/main/m/54/367/12635/57599">Q1</a> | <a  href="/main/m/54/367/12635/57600">Q2</a> | <a  href="/main/m/54/367/12635/57601">Q3</a> | <a  href="/main/m/54/367/12635/57602">GRID</a> | <b >RACE</b> | <a href="/main/m/54/367/12635/57603/2">TYRE HISTORY</a> | <a  href="/main/m/54/367/12635/57604">FASTEST LAPS</a> | <a  href="/main/m/54/367/12635/57605">PIT STOPS</a> | <a  href="/main/m/54/367/12635/57606">SPEEDS</a></div> <br>  <h2>RACE</h2>&nbsp; <a href="/main/m/54/367/12635/57603/3">Data player</a>  &nbsp; <a href="/main/m/54/367/12635/57603/4">LIVE</a>  &nbsp; <a href="/main/m/54/367/12635/57603/5">LIVE 2</a>  &nbsp; <a href="/main/m/54/367/12635/57603/6">LV_5</a>  &nbsp; <a href="/main/m/54/367/12635/57603/7">DP_5</a> &nbsp;<a href="?v=4">Laps times</a><br><table><tr valign="top"><td><table class="results tab_57603" ><tr valign="top"><th align="right">cla</th><th align="left"></th><th align="right">#</th><th align="left">driver</th><th align="left">chassis</th><th align="left">engine</th><th align="right">laps</th><th align="right">time</th><th align="right">gap</th><th align="right">int</th><th align="right">km/h</th><th align="right">pits</th><th align="left">retirement</th><th align="right">pts</th><th align="right">pen</th><th align="right"style="background-color: #fcc">reprim</th><th align="left">tyres change</th><th align="left">b_tyres</th></tr> 
Parsing GP 12636
Skipping incomplete row: <table><tr valign="top"><td><!-- layout --><form action="/main/m/" method="GET" class="sid_find_form"><input id="in_sid" type="text" name="sid" value="57817" title="sid"><button type="submit" title="find by sid">Go</button><button id="b_copy_sid_url" title="copy sid url">Url</button></form><script type="text/javascript">$(function(){$("#b_copy_sid_url").click(function(){var input = $("#in_sid");var sid = input.val();var url = "https://results.motorsport.com//main/m/?sid="+sid;input.val(url);input.select();document.execCommand("copy");input.val(sid);alert('session url copied to clipboard');return false;});});</script><br><select name="series" onchange="window.location.href = '/main/m/'+value"><option value="206" >ASIAN LE MANS</option><option value="30" >BTCC</option><option value="45" >DTM</option><option value="104" >EUROPEAN LE MANS</option><option value="6216" >F1 Academy</option><option value="54"  selected>FORMULA 1</option><option value="208" >FORMULA E</option><option value="73" >GP2</option><option value="74" >GP3</option><option value="211" >GT-MASTERS</option><option value="207" >IMSA</option><option value="87" >INDY LIGHTS</option><option value="86" >INDYCAR</option><option value="212" >MOTO2</option><option value="213" >MOTO3</option><option value="112" >MOTOGP</option><option value="1772" >MX2</option><option value="1771" >MXGP</option><option value="119" >NASCAR SPRINT CUP</option><option value="126" >NASCAR TRUCK</option><option value="124" >NASCAR XFINITY</option><option value="852" >STOCK CAR BRAZIL</option><option value="1101" >SUPER FORMULA</option><option value="172" >SUPER GT</option><option value="6098" >TCR AUSTRALIA</option><option value="18" >V8 SUPERCARS</option><option value="205" >WEC</option><option value="160" >WORLD CHALLENGE</option><option value="210" >WORLD RALLYCROSS</option><option value="194" >WORLD SUPERBIKE</option><option value="193" >WRC</option><option value="5551" >WTCR</option></select><br><br><select name="championship" onchange="window.location.href = '/main/m/54/'+value"><option value="367"  selected> 2025</option><option value="336" > 2024</option><option value="307" > 2023</option><option value="280" > 2022</option><option value="242" > 2021</option><option value="213" > 2020</option><option value="189" > 2019</option><option value="165" > 2018</option><option value="127" > 2017</option><option value="76" > 2016</option><option value="66" > 2015</option><option value="65" > 2014</option><option value="64" > 2013</option><option value="63" > 2012</option><option value="62" > 2011</option><option value="61" > 2010</option><option value="60" > 2009</option><option value="59" > 2008</option><option value="58" > 2007</option><option value="57" > 2006</option><option value="56" > 2005</option><option value="55" > 2004</option><option value="54" > 2003</option><option value="53" > 2002</option><option value="52" > 2001</option><option value="51" > 2000</option><option value="50" > 1999</option><option value="49" > 1998</option><option value="48" > 1997</option><option value="47" > 1996</option><option value="46" > 1995</option><option value="45" > 1994</option><option value="44" > 1993</option><option value="43" > 1992</option><option value="42" > 1991</option><option value="41" > 1990</option><option value="40" > 1989</option><option value="39" > 1988</option><option value="38" > 1987</option><option value="37" > 1986</option><option value="36" > 1985</option><option value="35" > 1984</option><option value="34" > 1983</option><option value="33" > 1982</option><option value="32" > 1981</option><option value="31" > 1980</option><option value="30" > 1979</option><option value="29" > 1978</option><option value="28" > 1977</option><option value="27" > 1976</option><option value="26" > 1975</option><option value="25" > 1974</option><option value="24" > 1973</option><option value="23" > 1972</option><option value="22" > 1971</option><option value="21" > 1970</option><option value="20" > 1969</option><option value="19" > 1968</option><option value="18" > 1967</option><option value="17" > 1966</option><option value="16" > 1965</option><option value="15" > 1964</option><option value="14" > 1963</option><option value="13" > 1962</option><option value="12" > 1961</option><option value="11" > 1960</option><option value="10" > 1959</option><option value="9" > 1958</option><option value="8" > 1957</option><option value="7" > 1956</option><option value="6" > 1955</option><option value="5" > 1954</option><option value="4" > 1953</option><option value="3" > 1952</option><option value="2" > 1951</option><option value="1" > 1950</option></select>    <br><br><a href="/main/m/54/367/-2">Drivers Championship</a><br><a href="/main/m/54/367/-3">Constructors Championship</a><br><a href="/main/m/54/367/-10">Drivers penalty points</a><br><a href="/main/m/54/367/-20">Drivers reprimands</a><br><br>    <a href="/main/m/54/367/12651"> Bahrain</a><div style="font-size:8px; padding-left: 10px; margin:-5px 0 -2px;">28.02.2025</div><a href="/main/m/54/367/12627"> Australia</a><div style="font-size:8px; padding-left: 10px; margin:-5px 0 -2px;">16.03.2025</div><a href="/main/m/54/367/12628"> China</a><div style="font-size:8px; padding-left: 10px; margin:-5px 0 -2px;">23.03.2025</div><a href="/main/m/54/367/12629"> Japan</a><div style="font-size:8px; padding-left: 10px; margin:-5px 0 -2px;">06.04.2025</div><a href="/main/m/54/367/12630"> Bahrain</a><div style="font-size:8px; padding-left: 10px; margin:-5px 0 -2px;">13.04.2025</div><a href="/main/m/54/367/12631"> Saudi Arabia</a><div style="font-size:8px; padding-left: 10px; margin:-5px 0 -2px;">20.04.2025</div><a href="/main/m/54/367/12632"> Miami</a><div style="font-size:8px; padding-left: 10px; margin:-5px 0 -2px;">04.05.2025</div><a href="/main/m/54/367/12633"> Emilia Romagna</a><div style="font-size:8px; padding-left: 10px; margin:-5px 0 -2px;">18.05.2025</div><a href="/main/m/54/367/12634"> Monaco</a><div style="font-size:8px; padding-left: 10px; margin:-5px 0 -2px;">25.05.2025</div><a href="/main/m/54/367/12635"> Spain</a><div style="font-size:8px; padding-left: 10px; margin:-5px 0 -2px;">01.06.2025</div><b> Canada</b> <div style="font-size:8px; padding-left: 10px; margin:-5px 0 -2px;">15.06.2025</div><a href="/main/m/54/367/12637"> Austria</a><div style="font-size:8px; padding-left: 10px; margin:-5px 0 -2px;">29.06.2025</div><a href="/main/m/54/367/12638"> Great Britain</a><div style="font-size:8px; padding-left: 10px; margin:-5px 0 -2px;">06.07.2025</div><a href="/main/m/54/367/12639"> Belgium</a><div style="font-size:8px; padding-left: 10px; margin:-5px 0 -2px;">27.07.2025</div><a href="/main/m/54/367/12640"> Hungary</a><div style="font-size:8px; padding-left: 10px; margin:-5px 0 -2px;">03.08.2025</div><a href="/main/m/54/367/12641"> Netherlands</a><div style="font-size:8px; padding-left: 10px; margin:-5px 0 -2px;">31.08.2025</div><a href="/main/m/54/367/12642"> Italy</a><div style="font-size:8px; padding-left: 10px; margin:-5px 0 -2px;">07.09.2025</div><a href="/main/m/54/367/12643"> Azerbaijan</a><div style="font-size:8px; padding-left: 10px; margin:-5px 0 -2px;">21.09.2025</div><a href="/main/m/54/367/12644"> Singapore</a><div style="font-size:8px; padding-left: 10px; margin:-5px 0 -2px;">05.10.2025</div><a href="/main/m/54/367/12645"> USA</a><div style="font-size:8px; padding-left: 10px; margin:-5px 0 -2px;">19.10.2025</div><a href="/main/m/54/367/12646"> Mexico</a><div style="font-size:8px; padding-left: 10px; margin:-5px 0 -2px;">26.10.2025</div><a href="/main/m/54/367/12647"> Brazil</a><div style="font-size:8px; padding-left: 10px; margin:-5px 0 -2px;">09.11.2025</div><a href="/main/m/54/367/12648"> Las Vegas</a><div style="font-size:8px; padding-left: 10px; margin:-5px 0 -2px;">22.11.2025</div><a href="/main/m/54/367/12649"> Qatar</a><div style="font-size:8px; padding-left: 10px; margin:-5px 0 -2px;">30.11.2025</div><a href="/main/m/54/367/12650"> Abu Dhabi</a><div style="font-size:8px; padding-left: 10px; margin:-5px 0 -2px;">07.12.2025</div><a href="/main/m/54/367/12847"> Abu Dhabi</a><div style="font-size:8px; padding-left: 10px; margin:-5px 0 -2px;">09.12.2025</div></td><td id="td_menu_holder"><!-- vertical menu --></td><td><!-- layout --><h2>10. Canada / Pirelli Grand Prix du Canada / Montreal</h2><div id="session_list">  | <a  href="/main/m/54/367/12636/-1">ENTRY LIST</a> | <a  href="/main/m/54/367/12636/57810">P1</a> | <a  href="/main/m/54/367/12636/57811">P2</a> | <a  href="/main/m/54/367/12636/57812">P3</a> | <a  href="/main/m/54/367/12636/57813">Q1</a> | <a  href="/main/m/54/367/12636/57814">Q2</a> | <a  href="/main/m/54/367/12636/57815">Q3</a> | <a  href="/main/m/54/367/12636/57816">GRID</a> | <b >RACE</b> | <a href="/main/m/54/367/12636/57817/2">TYRE HISTORY</a> | <a  href="/main/m/54/367/12636/57818">FASTEST LAPS</a> | <a  href="/main/m/54/367/12636/57819">PIT STOPS</a> | <a  href="/main/m/54/367/12636/57820">SPEEDS</a></div> <br>  <h2>RACE</h2>&nbsp; <a href="/main/m/54/367/12636/57817/3">Data player</a>  &nbsp; <a href="/main/m/54/367/12636/57817/4">LIVE</a>  &nbsp; <a href="/main/m/54/367/12636/57817/5">LIVE 2</a>  &nbsp; <a href="/main/m/54/367/12636/57817/6">LV_5</a>  &nbsp; <a href="/main/m/54/367/12636/57817/7">DP_5</a> &nbsp;<a href="?v=4">Laps times</a><br><table><tr valign="top"><td><table class="results tab_57817" ><tr valign="top"><th align="right">cla</th><th align="left"></th><th align="right">#</th><th align="left">driver</th><th align="left">chassis</th><th align="left">engine</th><th align="right">laps</th><th align="right">time</th><th align="right">gap</th><th align="right">int</th><th align="right">km/h</th><th align="right">pits</th><th align="left">retirement</th><th align="right">pts</th><th align="right">pen</th><th align="right"style="background-color: #fcc">reprim</th><th align="left">tyres change</th><th align="left">b_tyres</th></tr> 
Parsing GP 12637
Skipping incomplete row: <table><tr valign="top"><td><!-- layout --><form action="/main/m/" method="GET" class="sid_find_form"><input id="in_sid" type="text" name="sid" value="58082" title="sid"><button type="submit" title="find by sid">Go</button><button id="b_copy_sid_url" title="copy sid url">Url</button></form><script type="text/javascript">$(function(){$("#b_copy_sid_url").click(function(){var input = $("#in_sid");var sid = input.val();var url = "https://results.motorsport.com//main/m/?sid="+sid;input.val(url);input.select();document.execCommand("copy");input.val(sid);alert('session url copied to clipboard');return false;});});</script><br><select name="series" onchange="window.location.href = '/main/m/'+value"><option value="206" >ASIAN LE MANS</option><option value="30" >BTCC</option><option value="45" >DTM</option><option value="104" >EUROPEAN LE MANS</option><option value="6216" >F1 Academy</option><option value="54"  selected>FORMULA 1</option><option value="208" >FORMULA E</option><option value="73" >GP2</option><option value="74" >GP3</option><option value="211" >GT-MASTERS</option><option value="207" >IMSA</option><option value="87" >INDY LIGHTS</option><option value="86" >INDYCAR</option><option value="212" >MOTO2</option><option value="213" >MOTO3</option><option value="112" >MOTOGP</option><option value="1772" >MX2</option><option value="1771" >MXGP</option><option value="119" >NASCAR SPRINT CUP</option><option value="126" >NASCAR TRUCK</option><option value="124" >NASCAR XFINITY</option><option value="852" >STOCK CAR BRAZIL</option><option value="1101" >SUPER FORMULA</option><option value="172" >SUPER GT</option><option value="6098" >TCR AUSTRALIA</option><option value="18" >V8 SUPERCARS</option><option value="205" >WEC</option><option value="160" >WORLD CHALLENGE</option><option value="210" >WORLD RALLYCROSS</option><option value="194" >WORLD SUPERBIKE</option><option value="193" >WRC</option><option value="5551" >WTCR</option></select><br><br><select name="championship" onchange="window.location.href = '/main/m/54/'+value"><option value="367"  selected> 2025</option><option value="336" > 2024</option><option value="307" > 2023</option><option value="280" > 2022</option><option value="242" > 2021</option><option value="213" > 2020</option><option value="189" > 2019</option><option value="165" > 2018</option><option value="127" > 2017</option><option value="76" > 2016</option><option value="66" > 2015</option><option value="65" > 2014</option><option value="64" > 2013</option><option value="63" > 2012</option><option value="62" > 2011</option><option value="61" > 2010</option><option value="60" > 2009</option><option value="59" > 2008</option><option value="58" > 2007</option><option value="57" > 2006</option><option value="56" > 2005</option><option value="55" > 2004</option><option value="54" > 2003</option><option value="53" > 2002</option><option value="52" > 2001</option><option value="51" > 2000</option><option value="50" > 1999</option><option value="49" > 1998</option><option value="48" > 1997</option><option value="47" > 1996</option><option value="46" > 1995</option><option value="45" > 1994</option><option value="44" > 1993</option><option value="43" > 1992</option><option value="42" > 1991</option><option value="41" > 1990</option><option value="40" > 1989</option><option value="39" > 1988</option><option value="38" > 1987</option><option value="37" > 1986</option><option value="36" > 1985</option><option value="35" > 1984</option><option value="34" > 1983</option><option value="33" > 1982</option><option value="32" > 1981</option><option value="31" > 1980</option><option value="30" > 1979</option><option value="29" > 1978</option><option value="28" > 1977</option><option value="27" > 1976</option><option value="26" > 1975</option><option value="25" > 1974</option><option value="24" > 1973</option><option value="23" > 1972</option><option value="22" > 1971</option><option value="21" > 1970</option><option value="20" > 1969</option><option value="19" > 1968</option><option value="18" > 1967</option><option value="17" > 1966</option><option value="16" > 1965</option><option value="15" > 1964</option><option value="14" > 1963</option><option value="13" > 1962</option><option value="12" > 1961</option><option value="11" > 1960</option><option value="10" > 1959</option><option value="9" > 1958</option><option value="8" > 1957</option><option value="7" > 1956</option><option value="6" > 1955</option><option value="5" > 1954</option><option value="4" > 1953</option><option value="3" > 1952</option><option value="2" > 1951</option><option value="1" > 1950</option></select>    <br><br><a href="/main/m/54/367/-2">Drivers Championship</a><br><a href="/main/m/54/367/-3">Constructors Championship</a><br><a href="/main/m/54/367/-10">Drivers penalty points</a><br><a href="/main/m/54/367/-20">Drivers reprimands</a><br><br>    <a href="/main/m/54/367/12651"> Bahrain</a><div style="font-size:8px; padding-left: 10px; margin:-5px 0 -2px;">28.02.2025</div><a href="/main/m/54/367/12627"> Australia</a><div style="font-size:8px; padding-left: 10px; margin:-5px 0 -2px;">16.03.2025</div><a href="/main/m/54/367/12628"> China</a><div style="font-size:8px; padding-left: 10px; margin:-5px 0 -2px;">23.03.2025</div><a href="/main/m/54/367/12629"> Japan</a><div style="font-size:8px; padding-left: 10px; margin:-5px 0 -2px;">06.04.2025</div><a href="/main/m/54/367/12630"> Bahrain</a><div style="font-size:8px; padding-left: 10px; margin:-5px 0 -2px;">13.04.2025</div><a href="/main/m/54/367/12631"> Saudi Arabia</a><div style="font-size:8px; padding-left: 10px; margin:-5px 0 -2px;">20.04.2025</div><a href="/main/m/54/367/12632"> Miami</a><div style="font-size:8px; padding-left: 10px; margin:-5px 0 -2px;">04.05.2025</div><a href="/main/m/54/367/12633"> Emilia Romagna</a><div style="font-size:8px; padding-left: 10px; margin:-5px 0 -2px;">18.05.2025</div><a href="/main/m/54/367/12634"> Monaco</a><div style="font-size:8px; padding-left: 10px; margin:-5px 0 -2px;">25.05.2025</div><a href="/main/m/54/367/12635"> Spain</a><div style="font-size:8px; padding-left: 10px; margin:-5px 0 -2px;">01.06.2025</div><a href="/main/m/54/367/12636"> Canada</a><div style="font-size:8px; padding-left: 10px; margin:-5px 0 -2px;">15.06.2025</div><b> Austria</b> <div style="font-size:8px; padding-left: 10px; margin:-5px 0 -2px;">29.06.2025</div><a href="/main/m/54/367/12638"> Great Britain</a><div style="font-size:8px; padding-left: 10px; margin:-5px 0 -2px;">06.07.2025</div><a href="/main/m/54/367/12639"> Belgium</a><div style="font-size:8px; padding-left: 10px; margin:-5px 0 -2px;">27.07.2025</div><a href="/main/m/54/367/12640"> Hungary</a><div style="font-size:8px; padding-left: 10px; margin:-5px 0 -2px;">03.08.2025</div><a href="/main/m/54/367/12641"> Netherlands</a><div style="font-size:8px; padding-left: 10px; margin:-5px 0 -2px;">31.08.2025</div><a href="/main/m/54/367/12642"> Italy</a><div style="font-size:8px; padding-left: 10px; margin:-5px 0 -2px;">07.09.2025</div><a href="/main/m/54/367/12643"> Azerbaijan</a><div style="font-size:8px; padding-left: 10px; margin:-5px 0 -2px;">21.09.2025</div><a href="/main/m/54/367/12644"> Singapore</a><div style="font-size:8px; padding-left: 10px; margin:-5px 0 -2px;">05.10.2025</div><a href="/main/m/54/367/12645"> USA</a><div style="font-size:8px; padding-left: 10px; margin:-5px 0 -2px;">19.10.2025</div><a href="/main/m/54/367/12646"> Mexico</a><div style="font-size:8px; padding-left: 10px; margin:-5px 0 -2px;">26.10.2025</div><a href="/main/m/54/367/12647"> Brazil</a><div style="font-size:8px; padding-left: 10px; margin:-5px 0 -2px;">09.11.2025</div><a href="/main/m/54/367/12648"> Las Vegas</a><div style="font-size:8px; padding-left: 10px; margin:-5px 0 -2px;">22.11.2025</div><a href="/main/m/54/367/12649"> Qatar</a><div style="font-size:8px; padding-left: 10px; margin:-5px 0 -2px;">30.11.2025</div><a href="/main/m/54/367/12650"> Abu Dhabi</a><div style="font-size:8px; padding-left: 10px; margin:-5px 0 -2px;">07.12.2025</div><a href="/main/m/54/367/12847"> Abu Dhabi</a><div style="font-size:8px; padding-left: 10px; margin:-5px 0 -2px;">09.12.2025</div></td><td id="td_menu_holder"><!-- vertical menu --></td><td><!-- layout --><h2>11. Austria / Grosser Preis Von sterreich / A1 Ring</h2><div id="session_list">  | <a  href="/main/m/54/367/12637/-1">ENTRY LIST</a> | <a  href="/main/m/54/367/12637/58075">P1</a> | <a  href="/main/m/54/367/12637/58076">P2</a> | <a  href="/main/m/54/367/12637/58077">P3</a> | <a  href="/main/m/54/367/12637/58078">Q1</a> | <a  href="/main/m/54/367/12637/58079">Q2</a> | <a  href="/main/m/54/367/12637/58080">Q3</a> | <a  href="/main/m/54/367/12637/58081">GRID</a> | <b >RACE</b> | <a href="/main/m/54/367/12637/58082/2">TYRE HISTORY</a> | <a  href="/main/m/54/367/12637/58083">FASTEST LAPS</a> | <a  href="/main/m/54/367/12637/58084">PIT STOPS</a> | <a  href="/main/m/54/367/12637/58085">SPEEDS</a></div> <br>  <h2>RACE</h2>&nbsp; <a href="/main/m/54/367/12637/58082/3">Data player</a>  &nbsp; <a href="/main/m/54/367/12637/58082/4">LIVE</a>  &nbsp; <a href="/main/m/54/367/12637/58082/5">LIVE 2</a>  &nbsp; <a href="/main/m/54/367/12637/58082/6">LV_5</a>  &nbsp; <a href="/main/m/54/367/12637/58082/7">DP_5</a> &nbsp;<a href="?v=4">Laps times</a><br><table><tr valign="top"><td><table class="results tab_58082" ><tr valign="top"><th align="right">cla</th><th align="left"></th><th align="right">#</th><th align="left">driver</th><th align="left">chassis</th><th align="left">engine</th><th align="right">laps</th><th align="right">time</th><th align="right">gap</th><th align="right">int</th><th align="right">km/h</th><th align="right">pits</th><th align="left">retirement</th><th align="right">pts</th><th align="right">pen</th><th align="right"style="background-color: #fcc">reprim</th><th align="left">tyres change</th><th align="left">b_tyres</th></tr> 
Parsing GP 12638
Skipping incomplete row: <table><tr valign="top"><td><!-- layout --><form action="/main/m/" method="GET" class="sid_find_form"><input id="in_sid" type="text" name="sid" value="58179" title="sid"><button type="submit" title="find by sid">Go</button><button id="b_copy_sid_url" title="copy sid url">Url</button></form><script type="text/javascript">$(function(){$("#b_copy_sid_url").click(function(){var input = $("#in_sid");var sid = input.val();var url = "https://results.motorsport.com//main/m/?sid="+sid;input.val(url);input.select();document.execCommand("copy");input.val(sid);alert('session url copied to clipboard');return false;});});</script><br><select name="series" onchange="window.location.href = '/main/m/'+value"><option value="206" >ASIAN LE MANS</option><option value="30" >BTCC</option><option value="45" >DTM</option><option value="104" >EUROPEAN LE MANS</option><option value="6216" >F1 Academy</option><option value="54"  selected>FORMULA 1</option><option value="208" >FORMULA E</option><option value="73" >GP2</option><option value="74" >GP3</option><option value="211" >GT-MASTERS</option><option value="207" >IMSA</option><option value="87" >INDY LIGHTS</option><option value="86" >INDYCAR</option><option value="212" >MOTO2</option><option value="213" >MOTO3</option><option value="112" >MOTOGP</option><option value="1772" >MX2</option><option value="1771" >MXGP</option><option value="119" >NASCAR SPRINT CUP</option><option value="126" >NASCAR TRUCK</option><option value="124" >NASCAR XFINITY</option><option value="852" >STOCK CAR BRAZIL</option><option value="1101" >SUPER FORMULA</option><option value="172" >SUPER GT</option><option value="6098" >TCR AUSTRALIA</option><option value="18" >V8 SUPERCARS</option><option value="205" >WEC</option><option value="160" >WORLD CHALLENGE</option><option value="210" >WORLD RALLYCROSS</option><option value="194" >WORLD SUPERBIKE</option><option value="193" >WRC</option><option value="5551" >WTCR</option></select><br><br><select name="championship" onchange="window.location.href = '/main/m/54/'+value"><option value="367"  selected> 2025</option><option value="336" > 2024</option><option value="307" > 2023</option><option value="280" > 2022</option><option value="242" > 2021</option><option value="213" > 2020</option><option value="189" > 2019</option><option value="165" > 2018</option><option value="127" > 2017</option><option value="76" > 2016</option><option value="66" > 2015</option><option value="65" > 2014</option><option value="64" > 2013</option><option value="63" > 2012</option><option value="62" > 2011</option><option value="61" > 2010</option><option value="60" > 2009</option><option value="59" > 2008</option><option value="58" > 2007</option><option value="57" > 2006</option><option value="56" > 2005</option><option value="55" > 2004</option><option value="54" > 2003</option><option value="53" > 2002</option><option value="52" > 2001</option><option value="51" > 2000</option><option value="50" > 1999</option><option value="49" > 1998</option><option value="48" > 1997</option><option value="47" > 1996</option><option value="46" > 1995</option><option value="45" > 1994</option><option value="44" > 1993</option><option value="43" > 1992</option><option value="42" > 1991</option><option value="41" > 1990</option><option value="40" > 1989</option><option value="39" > 1988</option><option value="38" > 1987</option><option value="37" > 1986</option><option value="36" > 1985</option><option value="35" > 1984</option><option value="34" > 1983</option><option value="33" > 1982</option><option value="32" > 1981</option><option value="31" > 1980</option><option value="30" > 1979</option><option value="29" > 1978</option><option value="28" > 1977</option><option value="27" > 1976</option><option value="26" > 1975</option><option value="25" > 1974</option><option value="24" > 1973</option><option value="23" > 1972</option><option value="22" > 1971</option><option value="21" > 1970</option><option value="20" > 1969</option><option value="19" > 1968</option><option value="18" > 1967</option><option value="17" > 1966</option><option value="16" > 1965</option><option value="15" > 1964</option><option value="14" > 1963</option><option value="13" > 1962</option><option value="12" > 1961</option><option value="11" > 1960</option><option value="10" > 1959</option><option value="9" > 1958</option><option value="8" > 1957</option><option value="7" > 1956</option><option value="6" > 1955</option><option value="5" > 1954</option><option value="4" > 1953</option><option value="3" > 1952</option><option value="2" > 1951</option><option value="1" > 1950</option></select>    <br><br><a href="/main/m/54/367/-2">Drivers Championship</a><br><a href="/main/m/54/367/-3">Constructors Championship</a><br><a href="/main/m/54/367/-10">Drivers penalty points</a><br><a href="/main/m/54/367/-20">Drivers reprimands</a><br><br>    <a href="/main/m/54/367/12651"> Bahrain</a><div style="font-size:8px; padding-left: 10px; margin:-5px 0 -2px;">28.02.2025</div><a href="/main/m/54/367/12627"> Australia</a><div style="font-size:8px; padding-left: 10px; margin:-5px 0 -2px;">16.03.2025</div><a href="/main/m/54/367/12628"> China</a><div style="font-size:8px; padding-left: 10px; margin:-5px 0 -2px;">23.03.2025</div><a href="/main/m/54/367/12629"> Japan</a><div style="font-size:8px; padding-left: 10px; margin:-5px 0 -2px;">06.04.2025</div><a href="/main/m/54/367/12630"> Bahrain</a><div style="font-size:8px; padding-left: 10px; margin:-5px 0 -2px;">13.04.2025</div><a href="/main/m/54/367/12631"> Saudi Arabia</a><div style="font-size:8px; padding-left: 10px; margin:-5px 0 -2px;">20.04.2025</div><a href="/main/m/54/367/12632"> Miami</a><div style="font-size:8px; padding-left: 10px; margin:-5px 0 -2px;">04.05.2025</div><a href="/main/m/54/367/12633"> Emilia Romagna</a><div style="font-size:8px; padding-left: 10px; margin:-5px 0 -2px;">18.05.2025</div><a href="/main/m/54/367/12634"> Monaco</a><div style="font-size:8px; padding-left: 10px; margin:-5px 0 -2px;">25.05.2025</div><a href="/main/m/54/367/12635"> Spain</a><div style="font-size:8px; padding-left: 10px; margin:-5px 0 -2px;">01.06.2025</div><a href="/main/m/54/367/12636"> Canada</a><div style="font-size:8px; padding-left: 10px; margin:-5px 0 -2px;">15.06.2025</div><a href="/main/m/54/367/12637"> Austria</a><div style="font-size:8px; padding-left: 10px; margin:-5px 0 -2px;">29.06.2025</div><b> Great Britain</b> <div style="font-size:8px; padding-left: 10px; margin:-5px 0 -2px;">06.07.2025</div><a href="/main/m/54/367/12639"> Belgium</a><div style="font-size:8px; padding-left: 10px; margin:-5px 0 -2px;">27.07.2025</div><a href="/main/m/54/367/12640"> Hungary</a><div style="font-size:8px; padding-left: 10px; margin:-5px 0 -2px;">03.08.2025</div><a href="/main/m/54/367/12641"> Netherlands</a><div style="font-size:8px; padding-left: 10px; margin:-5px 0 -2px;">31.08.2025</div><a href="/main/m/54/367/12642"> Italy</a><div style="font-size:8px; padding-left: 10px; margin:-5px 0 -2px;">07.09.2025</div><a href="/main/m/54/367/12643"> Azerbaijan</a><div style="font-size:8px; padding-left: 10px; margin:-5px 0 -2px;">21.09.2025</div><a href="/main/m/54/367/12644"> Singapore</a><div style="font-size:8px; padding-left: 10px; margin:-5px 0 -2px;">05.10.2025</div><a href="/main/m/54/367/12645"> USA</a><div style="font-size:8px; padding-left: 10px; margin:-5px 0 -2px;">19.10.2025</div><a href="/main/m/54/367/12646"> Mexico</a><div style="font-size:8px; padding-left: 10px; margin:-5px 0 -2px;">26.10.2025</div><a href="/main/m/54/367/12647"> Brazil</a><div style="font-size:8px; padding-left: 10px; margin:-5px 0 -2px;">09.11.2025</div><a href="/main/m/54/367/12648"> Las Vegas</a><div style="font-size:8px; padding-left: 10px; margin:-5px 0 -2px;">22.11.2025</div><a href="/main/m/54/367/12649"> Qatar</a><div style="font-size:8px; padding-left: 10px; margin:-5px 0 -2px;">30.11.2025</div><a href="/main/m/54/367/12650"> Abu Dhabi</a><div style="font-size:8px; padding-left: 10px; margin:-5px 0 -2px;">07.12.2025</div><a href="/main/m/54/367/12847"> Abu Dhabi</a><div style="font-size:8px; padding-left: 10px; margin:-5px 0 -2px;">09.12.2025</div></td><td id="td_menu_holder"><!-- vertical menu --></td><td><!-- layout --><h2>12. Great Britain / Aramco British Grand Prix / Silverstone</h2><div id="session_list">  | <a  href="/main/m/54/367/12638/-1">ENTRY LIST</a> | <a  href="/main/m/54/367/12638/58172">P1</a> | <a  href="/main/m/54/367/12638/58173">P2</a> | <a  href="/main/m/54/367/12638/58174">P3</a> | <a  href="/main/m/54/367/12638/58175">Q1</a> | <a  href="/main/m/54/367/12638/58176">Q2</a> | <a  href="/main/m/54/367/12638/58177">Q3</a> | <a  href="/main/m/54/367/12638/58178">GRID</a> | <b >RACE</b> | <a href="/main/m/54/367/12638/58179/2">TYRE HISTORY</a> | <a  href="/main/m/54/367/12638/58180">FASTEST LAPS</a> | <a  href="/main/m/54/367/12638/58181">PIT STOPS</a> | <a  href="/main/m/54/367/12638/58182">SPEEDS</a></div> <br>  <h2>RACE</h2>&nbsp; <a href="/main/m/54/367/12638/58179/3">Data player</a>  &nbsp; <a href="/main/m/54/367/12638/58179/4">LIVE</a>  &nbsp; <a href="/main/m/54/367/12638/58179/5">LIVE 2</a>  &nbsp; <a href="/main/m/54/367/12638/58179/6">LV_5</a>  &nbsp; <a href="/main/m/54/367/12638/58179/7">DP_5</a> &nbsp;<a href="?v=4">Laps times</a><br><table><tr valign="top"><td><table class="results tab_58179" ><tr valign="top"><th align="right">cla</th><th align="left"></th><th align="right">#</th><th align="left">driver</th><th align="left">chassis</th><th align="left">engine</th><th align="right">laps</th><th align="right">time</th><th align="right">gap</th><th align="right">int</th><th align="right"style="background-color: #fcc">km/h</th><th align="right">pits</th><th align="left">retirement</th><th align="right">pts</th><th align="right">pen</th><th align="right"style="background-color: #fcc">reprim</th><th align="left">tyres change</th><th align="left">b_tyres</th></tr> 
Parsing GP 12639
Skipping incomplete row: <table><tr valign="top"><td><!-- layout --><form action="/main/m/" method="GET" class="sid_find_form"><input id="in_sid" type="text" name="sid" value="58493" title="sid"><button type="submit" title="find by sid">Go</button><button id="b_copy_sid_url" title="copy sid url">Url</button></form><script type="text/javascript">$(function(){$("#b_copy_sid_url").click(function(){var input = $("#in_sid");var sid = input.val();var url = "https://results.motorsport.com//main/m/?sid="+sid;input.val(url);input.select();document.execCommand("copy");input.val(sid);alert('session url copied to clipboard');return false;});});</script><br><select name="series" onchange="window.location.href = '/main/m/'+value"><option value="206" >ASIAN LE MANS</option><option value="30" >BTCC</option><option value="45" >DTM</option><option value="104" >EUROPEAN LE MANS</option><option value="6216" >F1 Academy</option><option value="54"  selected>FORMULA 1</option><option value="208" >FORMULA E</option><option value="73" >GP2</option><option value="74" >GP3</option><option value="211" >GT-MASTERS</option><option value="207" >IMSA</option><option value="87" >INDY LIGHTS</option><option value="86" >INDYCAR</option><option value="212" >MOTO2</option><option value="213" >MOTO3</option><option value="112" >MOTOGP</option><option value="1772" >MX2</option><option value="1771" >MXGP</option><option value="119" >NASCAR SPRINT CUP</option><option value="126" >NASCAR TRUCK</option><option value="124" >NASCAR XFINITY</option><option value="852" >STOCK CAR BRAZIL</option><option value="1101" >SUPER FORMULA</option><option value="172" >SUPER GT</option><option value="6098" >TCR AUSTRALIA</option><option value="18" >V8 SUPERCARS</option><option value="205" >WEC</option><option value="160" >WORLD CHALLENGE</option><option value="210" >WORLD RALLYCROSS</option><option value="194" >WORLD SUPERBIKE</option><option value="193" >WRC</option><option value="5551" >WTCR</option></select><br><br><select name="championship" onchange="window.location.href = '/main/m/54/'+value"><option value="367"  selected> 2025</option><option value="336" > 2024</option><option value="307" > 2023</option><option value="280" > 2022</option><option value="242" > 2021</option><option value="213" > 2020</option><option value="189" > 2019</option><option value="165" > 2018</option><option value="127" > 2017</option><option value="76" > 2016</option><option value="66" > 2015</option><option value="65" > 2014</option><option value="64" > 2013</option><option value="63" > 2012</option><option value="62" > 2011</option><option value="61" > 2010</option><option value="60" > 2009</option><option value="59" > 2008</option><option value="58" > 2007</option><option value="57" > 2006</option><option value="56" > 2005</option><option value="55" > 2004</option><option value="54" > 2003</option><option value="53" > 2002</option><option value="52" > 2001</option><option value="51" > 2000</option><option value="50" > 1999</option><option value="49" > 1998</option><option value="48" > 1997</option><option value="47" > 1996</option><option value="46" > 1995</option><option value="45" > 1994</option><option value="44" > 1993</option><option value="43" > 1992</option><option value="42" > 1991</option><option value="41" > 1990</option><option value="40" > 1989</option><option value="39" > 1988</option><option value="38" > 1987</option><option value="37" > 1986</option><option value="36" > 1985</option><option value="35" > 1984</option><option value="34" > 1983</option><option value="33" > 1982</option><option value="32" > 1981</option><option value="31" > 1980</option><option value="30" > 1979</option><option value="29" > 1978</option><option value="28" > 1977</option><option value="27" > 1976</option><option value="26" > 1975</option><option value="25" > 1974</option><option value="24" > 1973</option><option value="23" > 1972</option><option value="22" > 1971</option><option value="21" > 1970</option><option value="20" > 1969</option><option value="19" > 1968</option><option value="18" > 1967</option><option value="17" > 1966</option><option value="16" > 1965</option><option value="15" > 1964</option><option value="14" > 1963</option><option value="13" > 1962</option><option value="12" > 1961</option><option value="11" > 1960</option><option value="10" > 1959</option><option value="9" > 1958</option><option value="8" > 1957</option><option value="7" > 1956</option><option value="6" > 1955</option><option value="5" > 1954</option><option value="4" > 1953</option><option value="3" > 1952</option><option value="2" > 1951</option><option value="1" > 1950</option></select>    <br><br><a href="/main/m/54/367/-2">Drivers Championship</a><br><a href="/main/m/54/367/-3">Constructors Championship</a><br><a href="/main/m/54/367/-10">Drivers penalty points</a><br><a href="/main/m/54/367/-20">Drivers reprimands</a><br><br>    <a href="/main/m/54/367/12651"> Bahrain</a><div style="font-size:8px; padding-left: 10px; margin:-5px 0 -2px;">28.02.2025</div><a href="/main/m/54/367/12627"> Australia</a><div style="font-size:8px; padding-left: 10px; margin:-5px 0 -2px;">16.03.2025</div><a href="/main/m/54/367/12628"> China</a><div style="font-size:8px; padding-left: 10px; margin:-5px 0 -2px;">23.03.2025</div><a href="/main/m/54/367/12629"> Japan</a><div style="font-size:8px; padding-left: 10px; margin:-5px 0 -2px;">06.04.2025</div><a href="/main/m/54/367/12630"> Bahrain</a><div style="font-size:8px; padding-left: 10px; margin:-5px 0 -2px;">13.04.2025</div><a href="/main/m/54/367/12631"> Saudi Arabia</a><div style="font-size:8px; padding-left: 10px; margin:-5px 0 -2px;">20.04.2025</div><a href="/main/m/54/367/12632"> Miami</a><div style="font-size:8px; padding-left: 10px; margin:-5px 0 -2px;">04.05.2025</div><a href="/main/m/54/367/12633"> Emilia Romagna</a><div style="font-size:8px; padding-left: 10px; margin:-5px 0 -2px;">18.05.2025</div><a href="/main/m/54/367/12634"> Monaco</a><div style="font-size:8px; padding-left: 10px; margin:-5px 0 -2px;">25.05.2025</div><a href="/main/m/54/367/12635"> Spain</a><div style="font-size:8px; padding-left: 10px; margin:-5px 0 -2px;">01.06.2025</div><a href="/main/m/54/367/12636"> Canada</a><div style="font-size:8px; padding-left: 10px; margin:-5px 0 -2px;">15.06.2025</div><a href="/main/m/54/367/12637"> Austria</a><div style="font-size:8px; padding-left: 10px; margin:-5px 0 -2px;">29.06.2025</div><a href="/main/m/54/367/12638"> Great Britain</a><div style="font-size:8px; padding-left: 10px; margin:-5px 0 -2px;">06.07.2025</div><b> Belgium</b> <div style="font-size:8px; padding-left: 10px; margin:-5px 0 -2px;">27.07.2025</div><a href="/main/m/54/367/12640"> Hungary</a><div style="font-size:8px; padding-left: 10px; margin:-5px 0 -2px;">03.08.2025</div><a href="/main/m/54/367/12641"> Netherlands</a><div style="font-size:8px; padding-left: 10px; margin:-5px 0 -2px;">31.08.2025</div><a href="/main/m/54/367/12642"> Italy</a><div style="font-size:8px; padding-left: 10px; margin:-5px 0 -2px;">07.09.2025</div><a href="/main/m/54/367/12643"> Azerbaijan</a><div style="font-size:8px; padding-left: 10px; margin:-5px 0 -2px;">21.09.2025</div><a href="/main/m/54/367/12644"> Singapore</a><div style="font-size:8px; padding-left: 10px; margin:-5px 0 -2px;">05.10.2025</div><a href="/main/m/54/367/12645"> USA</a><div style="font-size:8px; padding-left: 10px; margin:-5px 0 -2px;">19.10.2025</div><a href="/main/m/54/367/12646"> Mexico</a><div style="font-size:8px; padding-left: 10px; margin:-5px 0 -2px;">26.10.2025</div><a href="/main/m/54/367/12647"> Brazil</a><div style="font-size:8px; padding-left: 10px; margin:-5px 0 -2px;">09.11.2025</div><a href="/main/m/54/367/12648"> Las Vegas</a><div style="font-size:8px; padding-left: 10px; margin:-5px 0 -2px;">22.11.2025</div><a href="/main/m/54/367/12649"> Qatar</a><div style="font-size:8px; padding-left: 10px; margin:-5px 0 -2px;">30.11.2025</div><a href="/main/m/54/367/12650"> Abu Dhabi</a><div style="font-size:8px; padding-left: 10px; margin:-5px 0 -2px;">07.12.2025</div><a href="/main/m/54/367/12847"> Abu Dhabi</a><div style="font-size:8px; padding-left: 10px; margin:-5px 0 -2px;">09.12.2025</div></td><td id="td_menu_holder"><!-- vertical menu --></td><td><!-- layout --><h2>13. Belgium / Belgian Grand Prix / Spa Francorchamps</h2><div id="session_list">  | <a  href="/main/m/54/367/12639/-1">ENTRY LIST</a> | <a  href="/main/m/54/367/12639/58482">P1</a> | <a  href="/main/m/54/367/12639/58483">SQ1</a> | <a  href="/main/m/54/367/12639/58484">SQ2</a> | <a  href="/main/m/54/367/12639/58485">SQ3</a> | <a  href="/main/m/54/367/12639/58486">SPR GRID</a> | <a  href="/main/m/54/367/12639/58487">SPR</a> | <a  href="/main/m/54/367/12639/58488">SPR FL</a> | <a  href="/main/m/54/367/12639/58489">Q1</a> | <a  href="/main/m/54/367/12639/58490">Q2</a> | <a  href="/main/m/54/367/12639/58491">Q3</a> | <a  href="/main/m/54/367/12639/58492">GRID</a> | <b >RACE</b> | <a href="/main/m/54/367/12639/58493/2">TYRE HISTORY</a> | <a  href="/main/m/54/367/12639/58494">FASTEST LAPS</a> | <a  href="/main/m/54/367/12639/58495">PIT STOPS</a> | <a  href="/main/m/54/367/12639/58496">SPEEDS</a></div> <br>  <h2>RACE</h2>&nbsp; <a href="/main/m/54/367/12639/58493/3">Data player</a>  &nbsp; <a href="/main/m/54/367/12639/58493/4">LIVE</a>  &nbsp; <a href="/main/m/54/367/12639/58493/5">LIVE 2</a>  &nbsp; <a href="/main/m/54/367/12639/58493/6">LV_5</a>  &nbsp; <a href="/main/m/54/367/12639/58493/7">DP_5</a> &nbsp;<a href="?v=4">Laps times</a><br><table><tr valign="top"><td><table class="results tab_58493" ><tr valign="top"><th align="right">cla</th><th align="left"style="background-color: #fcc"></th><th align="right">#</th><th align="left">driver</th><th align="left">chassis</th><th align="left">engine</th><th align="right">laps</th><th align="right">time</th><th align="right">gap</th><th align="right">int</th><th align="right">km/h</th><th align="right">pits</th><th align="left"style="background-color: #fcc">retirement</th><th align="right">pts</th><th align="right"style="background-color: #fcc">pen</th><th align="right"style="background-color: #fcc">reprim</th><th align="left">tyres change</th><th align="left">b_tyres</th></tr> 
Parsing GP 12640
Skipping incomplete row: <table><tr valign="top"><td><!-- layout --><form action="/main/m/" method="GET" class="sid_find_form"><input id="in_sid" type="text" name="sid" value="58596" title="sid"><button type="submit" title="find by sid">Go</button><button id="b_copy_sid_url" title="copy sid url">Url</button></form><script type="text/javascript">$(function(){$("#b_copy_sid_url").click(function(){var input = $("#in_sid");var sid = input.val();var url = "https://results.motorsport.com//main/m/?sid="+sid;input.val(url);input.select();document.execCommand("copy");input.val(sid);alert('session url copied to clipboard');return false;});});</script><br><select name="series" onchange="window.location.href = '/main/m/'+value"><option value="206" >ASIAN LE MANS</option><option value="30" >BTCC</option><option value="45" >DTM</option><option value="104" >EUROPEAN LE MANS</option><option value="6216" >F1 Academy</option><option value="54"  selected>FORMULA 1</option><option value="208" >FORMULA E</option><option value="73" >GP2</option><option value="74" >GP3</option><option value="211" >GT-MASTERS</option><option value="207" >IMSA</option><option value="87" >INDY LIGHTS</option><option value="86" >INDYCAR</option><option value="212" >MOTO2</option><option value="213" >MOTO3</option><option value="112" >MOTOGP</option><option value="1772" >MX2</option><option value="1771" >MXGP</option><option value="119" >NASCAR SPRINT CUP</option><option value="126" >NASCAR TRUCK</option><option value="124" >NASCAR XFINITY</option><option value="852" >STOCK CAR BRAZIL</option><option value="1101" >SUPER FORMULA</option><option value="172" >SUPER GT</option><option value="6098" >TCR AUSTRALIA</option><option value="18" >V8 SUPERCARS</option><option value="205" >WEC</option><option value="160" >WORLD CHALLENGE</option><option value="210" >WORLD RALLYCROSS</option><option value="194" >WORLD SUPERBIKE</option><option value="193" >WRC</option><option value="5551" >WTCR</option></select><br><br><select name="championship" onchange="window.location.href = '/main/m/54/'+value"><option value="367"  selected> 2025</option><option value="336" > 2024</option><option value="307" > 2023</option><option value="280" > 2022</option><option value="242" > 2021</option><option value="213" > 2020</option><option value="189" > 2019</option><option value="165" > 2018</option><option value="127" > 2017</option><option value="76" > 2016</option><option value="66" > 2015</option><option value="65" > 2014</option><option value="64" > 2013</option><option value="63" > 2012</option><option value="62" > 2011</option><option value="61" > 2010</option><option value="60" > 2009</option><option value="59" > 2008</option><option value="58" > 2007</option><option value="57" > 2006</option><option value="56" > 2005</option><option value="55" > 2004</option><option value="54" > 2003</option><option value="53" > 2002</option><option value="52" > 2001</option><option value="51" > 2000</option><option value="50" > 1999</option><option value="49" > 1998</option><option value="48" > 1997</option><option value="47" > 1996</option><option value="46" > 1995</option><option value="45" > 1994</option><option value="44" > 1993</option><option value="43" > 1992</option><option value="42" > 1991</option><option value="41" > 1990</option><option value="40" > 1989</option><option value="39" > 1988</option><option value="38" > 1987</option><option value="37" > 1986</option><option value="36" > 1985</option><option value="35" > 1984</option><option value="34" > 1983</option><option value="33" > 1982</option><option value="32" > 1981</option><option value="31" > 1980</option><option value="30" > 1979</option><option value="29" > 1978</option><option value="28" > 1977</option><option value="27" > 1976</option><option value="26" > 1975</option><option value="25" > 1974</option><option value="24" > 1973</option><option value="23" > 1972</option><option value="22" > 1971</option><option value="21" > 1970</option><option value="20" > 1969</option><option value="19" > 1968</option><option value="18" > 1967</option><option value="17" > 1966</option><option value="16" > 1965</option><option value="15" > 1964</option><option value="14" > 1963</option><option value="13" > 1962</option><option value="12" > 1961</option><option value="11" > 1960</option><option value="10" > 1959</option><option value="9" > 1958</option><option value="8" > 1957</option><option value="7" > 1956</option><option value="6" > 1955</option><option value="5" > 1954</option><option value="4" > 1953</option><option value="3" > 1952</option><option value="2" > 1951</option><option value="1" > 1950</option></select>    <br><br><a href="/main/m/54/367/-2">Drivers Championship</a><br><a href="/main/m/54/367/-3">Constructors Championship</a><br><a href="/main/m/54/367/-10">Drivers penalty points</a><br><a href="/main/m/54/367/-20">Drivers reprimands</a><br><br>    <a href="/main/m/54/367/12651"> Bahrain</a><div style="font-size:8px; padding-left: 10px; margin:-5px 0 -2px;">28.02.2025</div><a href="/main/m/54/367/12627"> Australia</a><div style="font-size:8px; padding-left: 10px; margin:-5px 0 -2px;">16.03.2025</div><a href="/main/m/54/367/12628"> China</a><div style="font-size:8px; padding-left: 10px; margin:-5px 0 -2px;">23.03.2025</div><a href="/main/m/54/367/12629"> Japan</a><div style="font-size:8px; padding-left: 10px; margin:-5px 0 -2px;">06.04.2025</div><a href="/main/m/54/367/12630"> Bahrain</a><div style="font-size:8px; padding-left: 10px; margin:-5px 0 -2px;">13.04.2025</div><a href="/main/m/54/367/12631"> Saudi Arabia</a><div style="font-size:8px; padding-left: 10px; margin:-5px 0 -2px;">20.04.2025</div><a href="/main/m/54/367/12632"> Miami</a><div style="font-size:8px; padding-left: 10px; margin:-5px 0 -2px;">04.05.2025</div><a href="/main/m/54/367/12633"> Emilia Romagna</a><div style="font-size:8px; padding-left: 10px; margin:-5px 0 -2px;">18.05.2025</div><a href="/main/m/54/367/12634"> Monaco</a><div style="font-size:8px; padding-left: 10px; margin:-5px 0 -2px;">25.05.2025</div><a href="/main/m/54/367/12635"> Spain</a><div style="font-size:8px; padding-left: 10px; margin:-5px 0 -2px;">01.06.2025</div><a href="/main/m/54/367/12636"> Canada</a><div style="font-size:8px; padding-left: 10px; margin:-5px 0 -2px;">15.06.2025</div><a href="/main/m/54/367/12637"> Austria</a><div style="font-size:8px; padding-left: 10px; margin:-5px 0 -2px;">29.06.2025</div><a href="/main/m/54/367/12638"> Great Britain</a><div style="font-size:8px; padding-left: 10px; margin:-5px 0 -2px;">06.07.2025</div><a href="/main/m/54/367/12639"> Belgium</a><div style="font-size:8px; padding-left: 10px; margin:-5px 0 -2px;">27.07.2025</div><b> Hungary</b> <div style="font-size:8px; padding-left: 10px; margin:-5px 0 -2px;">03.08.2025</div><a href="/main/m/54/367/12641"> Netherlands</a><div style="font-size:8px; padding-left: 10px; margin:-5px 0 -2px;">31.08.2025</div><a href="/main/m/54/367/12642"> Italy</a><div style="font-size:8px; padding-left: 10px; margin:-5px 0 -2px;">07.09.2025</div><a href="/main/m/54/367/12643"> Azerbaijan</a><div style="font-size:8px; padding-left: 10px; margin:-5px 0 -2px;">21.09.2025</div><a href="/main/m/54/367/12644"> Singapore</a><div style="font-size:8px; padding-left: 10px; margin:-5px 0 -2px;">05.10.2025</div><a href="/main/m/54/367/12645"> USA</a><div style="font-size:8px; padding-left: 10px; margin:-5px 0 -2px;">19.10.2025</div><a href="/main/m/54/367/12646"> Mexico</a><div style="font-size:8px; padding-left: 10px; margin:-5px 0 -2px;">26.10.2025</div><a href="/main/m/54/367/12647"> Brazil</a><div style="font-size:8px; padding-left: 10px; margin:-5px 0 -2px;">09.11.2025</div><a href="/main/m/54/367/12648"> Las Vegas</a><div style="font-size:8px; padding-left: 10px; margin:-5px 0 -2px;">22.11.2025</div><a href="/main/m/54/367/12649"> Qatar</a><div style="font-size:8px; padding-left: 10px; margin:-5px 0 -2px;">30.11.2025</div><a href="/main/m/54/367/12650"> Abu Dhabi</a><div style="font-size:8px; padding-left: 10px; margin:-5px 0 -2px;">07.12.2025</div><a href="/main/m/54/367/12847"> Abu Dhabi</a><div style="font-size:8px; padding-left: 10px; margin:-5px 0 -2px;">09.12.2025</div></td><td id="td_menu_holder"><!-- vertical menu --></td><td><!-- layout --><h2>14. Hungary / Magyar Nagydj / Hungaroring</h2><div id="session_list">  | <a  href="/main/m/54/367/12640/-1">ENTRY LIST</a> | <a  href="/main/m/54/367/12640/58589">P1</a> | <a  href="/main/m/54/367/12640/58590">P2</a> | <a  href="/main/m/54/367/12640/58591">P3</a> | <a  href="/main/m/54/367/12640/58592">Q1</a> | <a  href="/main/m/54/367/12640/58593">Q2</a> | <a  href="/main/m/54/367/12640/58594">Q3</a> | <a  href="/main/m/54/367/12640/58595">GRID</a> | <b >RACE</b> | <a href="/main/m/54/367/12640/58596/2">TYRE HISTORY</a> | <a  href="/main/m/54/367/12640/58597">FASTEST LAPS</a> | <a  href="/main/m/54/367/12640/58598">PIT STOPS</a> | <a  href="/main/m/54/367/12640/58599">SPEEDS</a></div> <br>  <h2>RACE</h2>&nbsp; <a href="/main/m/54/367/12640/58596/3">Data player</a>  &nbsp; <a href="/main/m/54/367/12640/58596/4">LIVE</a>  &nbsp; <a href="/main/m/54/367/12640/58596/5">LIVE 2</a>  &nbsp; <a href="/main/m/54/367/12640/58596/6">LV_5</a>  &nbsp; <a href="/main/m/54/367/12640/58596/7">DP_5</a> &nbsp;<a href="?v=4">Laps times</a><br><table><tr valign="top"><td><table class="results tab_58596" ><tr valign="top"><th align="right">cla</th><th align="left"></th><th align="right">#</th><th align="left">driver</th><th align="left">chassis</th><th align="left">engine</th><th align="right">laps</th><th align="right">time</th><th align="right">gap</th><th align="right">int</th><th align="right">km/h</th><th align="right">pits</th><th align="left">retirement</th><th align="right">pts</th><th align="right">pen</th><th align="right"style="background-color: #fcc">reprim</th><th align="left">tyres change</th><th align="left">b_tyres</th></tr> 
Parsing GP 12641
Skipping incomplete row: <table><tr valign="top"><td><!-- layout --><form action="/main/m/" method="GET" class="sid_find_form"><input id="in_sid" type="text" name="sid" value="58915" title="sid"><button type="submit" title="find by sid">Go</button><button id="b_copy_sid_url" title="copy sid url">Url</button></form><script type="text/javascript">$(function(){$("#b_copy_sid_url").click(function(){var input = $("#in_sid");var sid = input.val();var url = "https://results.motorsport.com//main/m/?sid="+sid;input.val(url);input.select();document.execCommand("copy");input.val(sid);alert('session url copied to clipboard');return false;});});</script><br><select name="series" onchange="window.location.href = '/main/m/'+value"><option value="206" >ASIAN LE MANS</option><option value="30" >BTCC</option><option value="45" >DTM</option><option value="104" >EUROPEAN LE MANS</option><option value="6216" >F1 Academy</option><option value="54"  selected>FORMULA 1</option><option value="208" >FORMULA E</option><option value="73" >GP2</option><option value="74" >GP3</option><option value="211" >GT-MASTERS</option><option value="207" >IMSA</option><option value="87" >INDY LIGHTS</option><option value="86" >INDYCAR</option><option value="212" >MOTO2</option><option value="213" >MOTO3</option><option value="112" >MOTOGP</option><option value="1772" >MX2</option><option value="1771" >MXGP</option><option value="119" >NASCAR SPRINT CUP</option><option value="126" >NASCAR TRUCK</option><option value="124" >NASCAR XFINITY</option><option value="852" >STOCK CAR BRAZIL</option><option value="1101" >SUPER FORMULA</option><option value="172" >SUPER GT</option><option value="6098" >TCR AUSTRALIA</option><option value="18" >V8 SUPERCARS</option><option value="205" >WEC</option><option value="160" >WORLD CHALLENGE</option><option value="210" >WORLD RALLYCROSS</option><option value="194" >WORLD SUPERBIKE</option><option value="193" >WRC</option><option value="5551" >WTCR</option></select><br><br><select name="championship" onchange="window.location.href = '/main/m/54/'+value"><option value="367"  selected> 2025</option><option value="336" > 2024</option><option value="307" > 2023</option><option value="280" > 2022</option><option value="242" > 2021</option><option value="213" > 2020</option><option value="189" > 2019</option><option value="165" > 2018</option><option value="127" > 2017</option><option value="76" > 2016</option><option value="66" > 2015</option><option value="65" > 2014</option><option value="64" > 2013</option><option value="63" > 2012</option><option value="62" > 2011</option><option value="61" > 2010</option><option value="60" > 2009</option><option value="59" > 2008</option><option value="58" > 2007</option><option value="57" > 2006</option><option value="56" > 2005</option><option value="55" > 2004</option><option value="54" > 2003</option><option value="53" > 2002</option><option value="52" > 2001</option><option value="51" > 2000</option><option value="50" > 1999</option><option value="49" > 1998</option><option value="48" > 1997</option><option value="47" > 1996</option><option value="46" > 1995</option><option value="45" > 1994</option><option value="44" > 1993</option><option value="43" > 1992</option><option value="42" > 1991</option><option value="41" > 1990</option><option value="40" > 1989</option><option value="39" > 1988</option><option value="38" > 1987</option><option value="37" > 1986</option><option value="36" > 1985</option><option value="35" > 1984</option><option value="34" > 1983</option><option value="33" > 1982</option><option value="32" > 1981</option><option value="31" > 1980</option><option value="30" > 1979</option><option value="29" > 1978</option><option value="28" > 1977</option><option value="27" > 1976</option><option value="26" > 1975</option><option value="25" > 1974</option><option value="24" > 1973</option><option value="23" > 1972</option><option value="22" > 1971</option><option value="21" > 1970</option><option value="20" > 1969</option><option value="19" > 1968</option><option value="18" > 1967</option><option value="17" > 1966</option><option value="16" > 1965</option><option value="15" > 1964</option><option value="14" > 1963</option><option value="13" > 1962</option><option value="12" > 1961</option><option value="11" > 1960</option><option value="10" > 1959</option><option value="9" > 1958</option><option value="8" > 1957</option><option value="7" > 1956</option><option value="6" > 1955</option><option value="5" > 1954</option><option value="4" > 1953</option><option value="3" > 1952</option><option value="2" > 1951</option><option value="1" > 1950</option></select>    <br><br><a href="/main/m/54/367/-2">Drivers Championship</a><br><a href="/main/m/54/367/-3">Constructors Championship</a><br><a href="/main/m/54/367/-10">Drivers penalty points</a><br><a href="/main/m/54/367/-20">Drivers reprimands</a><br><br>    <a href="/main/m/54/367/12651"> Bahrain</a><div style="font-size:8px; padding-left: 10px; margin:-5px 0 -2px;">28.02.2025</div><a href="/main/m/54/367/12627"> Australia</a><div style="font-size:8px; padding-left: 10px; margin:-5px 0 -2px;">16.03.2025</div><a href="/main/m/54/367/12628"> China</a><div style="font-size:8px; padding-left: 10px; margin:-5px 0 -2px;">23.03.2025</div><a href="/main/m/54/367/12629"> Japan</a><div style="font-size:8px; padding-left: 10px; margin:-5px 0 -2px;">06.04.2025</div><a href="/main/m/54/367/12630"> Bahrain</a><div style="font-size:8px; padding-left: 10px; margin:-5px 0 -2px;">13.04.2025</div><a href="/main/m/54/367/12631"> Saudi Arabia</a><div style="font-size:8px; padding-left: 10px; margin:-5px 0 -2px;">20.04.2025</div><a href="/main/m/54/367/12632"> Miami</a><div style="font-size:8px; padding-left: 10px; margin:-5px 0 -2px;">04.05.2025</div><a href="/main/m/54/367/12633"> Emilia Romagna</a><div style="font-size:8px; padding-left: 10px; margin:-5px 0 -2px;">18.05.2025</div><a href="/main/m/54/367/12634"> Monaco</a><div style="font-size:8px; padding-left: 10px; margin:-5px 0 -2px;">25.05.2025</div><a href="/main/m/54/367/12635"> Spain</a><div style="font-size:8px; padding-left: 10px; margin:-5px 0 -2px;">01.06.2025</div><a href="/main/m/54/367/12636"> Canada</a><div style="font-size:8px; padding-left: 10px; margin:-5px 0 -2px;">15.06.2025</div><a href="/main/m/54/367/12637"> Austria</a><div style="font-size:8px; padding-left: 10px; margin:-5px 0 -2px;">29.06.2025</div><a href="/main/m/54/367/12638"> Great Britain</a><div style="font-size:8px; padding-left: 10px; margin:-5px 0 -2px;">06.07.2025</div><a href="/main/m/54/367/12639"> Belgium</a><div style="font-size:8px; padding-left: 10px; margin:-5px 0 -2px;">27.07.2025</div><a href="/main/m/54/367/12640"> Hungary</a><div style="font-size:8px; padding-left: 10px; margin:-5px 0 -2px;">03.08.2025</div><b> Netherlands</b> <div style="font-size:8px; padding-left: 10px; margin:-5px 0 -2px;">31.08.2025</div><a href="/main/m/54/367/12642"> Italy</a><div style="font-size:8px; padding-left: 10px; margin:-5px 0 -2px;">07.09.2025</div><a href="/main/m/54/367/12643"> Azerbaijan</a><div style="font-size:8px; padding-left: 10px; margin:-5px 0 -2px;">21.09.2025</div><a href="/main/m/54/367/12644"> Singapore</a><div style="font-size:8px; padding-left: 10px; margin:-5px 0 -2px;">05.10.2025</div><a href="/main/m/54/367/12645"> USA</a><div style="font-size:8px; padding-left: 10px; margin:-5px 0 -2px;">19.10.2025</div><a href="/main/m/54/367/12646"> Mexico</a><div style="font-size:8px; padding-left: 10px; margin:-5px 0 -2px;">26.10.2025</div><a href="/main/m/54/367/12647"> Brazil</a><div style="font-size:8px; padding-left: 10px; margin:-5px 0 -2px;">09.11.2025</div><a href="/main/m/54/367/12648"> Las Vegas</a><div style="font-size:8px; padding-left: 10px; margin:-5px 0 -2px;">22.11.2025</div><a href="/main/m/54/367/12649"> Qatar</a><div style="font-size:8px; padding-left: 10px; margin:-5px 0 -2px;">30.11.2025</div><a href="/main/m/54/367/12650"> Abu Dhabi</a><div style="font-size:8px; padding-left: 10px; margin:-5px 0 -2px;">07.12.2025</div><a href="/main/m/54/367/12847"> Abu Dhabi</a><div style="font-size:8px; padding-left: 10px; margin:-5px 0 -2px;">09.12.2025</div></td><td id="td_menu_holder"><!-- vertical menu --></td><td><!-- layout --><h2>15. Netherlands / Heineken Dutch Grand Prix / Zandvoort</h2><div id="session_list">  | <a  href="/main/m/54/367/12641/-1">ENTRY LIST</a> | <a  href="/main/m/54/367/12641/58908">P1</a> | <a  href="/main/m/54/367/12641/58909">P2</a> | <a  href="/main/m/54/367/12641/58910">P3</a> | <a  href="/main/m/54/367/12641/58911">Q1</a> | <a  href="/main/m/54/367/12641/58912">Q2</a> | <a  href="/main/m/54/367/12641/58913">Q3</a> | <a  href="/main/m/54/367/12641/58993">CQ</a> | <a  href="/main/m/54/367/12641/58914">GRID</a> | <b >RACE</b> | <a href="/main/m/54/367/12641/58915/2">TYRE HISTORY</a> | <a  href="/main/m/54/367/12641/58916">FASTEST LAPS</a> | <a  href="/main/m/54/367/12641/58917">PIT STOPS</a> | <a  href="/main/m/54/367/12641/58918">SPEEDS</a></div> <br>  <h2>RACE</h2>&nbsp; <a href="/main/m/54/367/12641/58915/3">Data player</a>  &nbsp; <a href="/main/m/54/367/12641/58915/4">LIVE</a>  &nbsp; <a href="/main/m/54/367/12641/58915/5">LIVE 2</a>  &nbsp; <a href="/main/m/54/367/12641/58915/6">LV_5</a>  &nbsp; <a href="/main/m/54/367/12641/58915/7">DP_5</a> &nbsp;<a href="?v=4">Laps times</a><br><table><tr valign="top"><td><table class="results tab_58915" ><tr valign="top"><th align="right">cla</th><th align="left"></th><th align="right">#</th><th align="left">driver</th><th align="left">chassis</th><th align="left">engine</th><th align="right">laps</th><th align="right">time</th><th align="right">gap</th><th align="right">int</th><th align="right">km/h</th><th align="right">pits</th><th align="left">retirement</th><th align="right">pts</th><th align="right">pen</th><th align="right"style="background-color: #fcc">reprim</th><th align="left">tyres change</th><th align="left">b_tyres</th></tr> 
Parsing GP 12642
Skipping incomplete row: <table><tr valign="top"><td><!-- layout --><form action="/main/m/" method="GET" class="sid_find_form"><input id="in_sid" type="text" name="sid" value="59012" title="sid"><button type="submit" title="find by sid">Go</button><button id="b_copy_sid_url" title="copy sid url">Url</button></form><script type="text/javascript">$(function(){$("#b_copy_sid_url").click(function(){var input = $("#in_sid");var sid = input.val();var url = "https://results.motorsport.com//main/m/?sid="+sid;input.val(url);input.select();document.execCommand("copy");input.val(sid);alert('session url copied to clipboard');return false;});});</script><br><select name="series" onchange="window.location.href = '/main/m/'+value"><option value="206" >ASIAN LE MANS</option><option value="30" >BTCC</option><option value="45" >DTM</option><option value="104" >EUROPEAN LE MANS</option><option value="6216" >F1 Academy</option><option value="54"  selected>FORMULA 1</option><option value="208" >FORMULA E</option><option value="73" >GP2</option><option value="74" >GP3</option><option value="211" >GT-MASTERS</option><option value="207" >IMSA</option><option value="87" >INDY LIGHTS</option><option value="86" >INDYCAR</option><option value="212" >MOTO2</option><option value="213" >MOTO3</option><option value="112" >MOTOGP</option><option value="1772" >MX2</option><option value="1771" >MXGP</option><option value="119" >NASCAR SPRINT CUP</option><option value="126" >NASCAR TRUCK</option><option value="124" >NASCAR XFINITY</option><option value="852" >STOCK CAR BRAZIL</option><option value="1101" >SUPER FORMULA</option><option value="172" >SUPER GT</option><option value="6098" >TCR AUSTRALIA</option><option value="18" >V8 SUPERCARS</option><option value="205" >WEC</option><option value="160" >WORLD CHALLENGE</option><option value="210" >WORLD RALLYCROSS</option><option value="194" >WORLD SUPERBIKE</option><option value="193" >WRC</option><option value="5551" >WTCR</option></select><br><br><select name="championship" onchange="window.location.href = '/main/m/54/'+value"><option value="367"  selected> 2025</option><option value="336" > 2024</option><option value="307" > 2023</option><option value="280" > 2022</option><option value="242" > 2021</option><option value="213" > 2020</option><option value="189" > 2019</option><option value="165" > 2018</option><option value="127" > 2017</option><option value="76" > 2016</option><option value="66" > 2015</option><option value="65" > 2014</option><option value="64" > 2013</option><option value="63" > 2012</option><option value="62" > 2011</option><option value="61" > 2010</option><option value="60" > 2009</option><option value="59" > 2008</option><option value="58" > 2007</option><option value="57" > 2006</option><option value="56" > 2005</option><option value="55" > 2004</option><option value="54" > 2003</option><option value="53" > 2002</option><option value="52" > 2001</option><option value="51" > 2000</option><option value="50" > 1999</option><option value="49" > 1998</option><option value="48" > 1997</option><option value="47" > 1996</option><option value="46" > 1995</option><option value="45" > 1994</option><option value="44" > 1993</option><option value="43" > 1992</option><option value="42" > 1991</option><option value="41" > 1990</option><option value="40" > 1989</option><option value="39" > 1988</option><option value="38" > 1987</option><option value="37" > 1986</option><option value="36" > 1985</option><option value="35" > 1984</option><option value="34" > 1983</option><option value="33" > 1982</option><option value="32" > 1981</option><option value="31" > 1980</option><option value="30" > 1979</option><option value="29" > 1978</option><option value="28" > 1977</option><option value="27" > 1976</option><option value="26" > 1975</option><option value="25" > 1974</option><option value="24" > 1973</option><option value="23" > 1972</option><option value="22" > 1971</option><option value="21" > 1970</option><option value="20" > 1969</option><option value="19" > 1968</option><option value="18" > 1967</option><option value="17" > 1966</option><option value="16" > 1965</option><option value="15" > 1964</option><option value="14" > 1963</option><option value="13" > 1962</option><option value="12" > 1961</option><option value="11" > 1960</option><option value="10" > 1959</option><option value="9" > 1958</option><option value="8" > 1957</option><option value="7" > 1956</option><option value="6" > 1955</option><option value="5" > 1954</option><option value="4" > 1953</option><option value="3" > 1952</option><option value="2" > 1951</option><option value="1" > 1950</option></select>    <br><br><a href="/main/m/54/367/-2">Drivers Championship</a><br><a href="/main/m/54/367/-3">Constructors Championship</a><br><a href="/main/m/54/367/-10">Drivers penalty points</a><br><a href="/main/m/54/367/-20">Drivers reprimands</a><br><br>    <a href="/main/m/54/367/12651"> Bahrain</a><div style="font-size:8px; padding-left: 10px; margin:-5px 0 -2px;">28.02.2025</div><a href="/main/m/54/367/12627"> Australia</a><div style="font-size:8px; padding-left: 10px; margin:-5px 0 -2px;">16.03.2025</div><a href="/main/m/54/367/12628"> China</a><div style="font-size:8px; padding-left: 10px; margin:-5px 0 -2px;">23.03.2025</div><a href="/main/m/54/367/12629"> Japan</a><div style="font-size:8px; padding-left: 10px; margin:-5px 0 -2px;">06.04.2025</div><a href="/main/m/54/367/12630"> Bahrain</a><div style="font-size:8px; padding-left: 10px; margin:-5px 0 -2px;">13.04.2025</div><a href="/main/m/54/367/12631"> Saudi Arabia</a><div style="font-size:8px; padding-left: 10px; margin:-5px 0 -2px;">20.04.2025</div><a href="/main/m/54/367/12632"> Miami</a><div style="font-size:8px; padding-left: 10px; margin:-5px 0 -2px;">04.05.2025</div><a href="/main/m/54/367/12633"> Emilia Romagna</a><div style="font-size:8px; padding-left: 10px; margin:-5px 0 -2px;">18.05.2025</div><a href="/main/m/54/367/12634"> Monaco</a><div style="font-size:8px; padding-left: 10px; margin:-5px 0 -2px;">25.05.2025</div><a href="/main/m/54/367/12635"> Spain</a><div style="font-size:8px; padding-left: 10px; margin:-5px 0 -2px;">01.06.2025</div><a href="/main/m/54/367/12636"> Canada</a><div style="font-size:8px; padding-left: 10px; margin:-5px 0 -2px;">15.06.2025</div><a href="/main/m/54/367/12637"> Austria</a><div style="font-size:8px; padding-left: 10px; margin:-5px 0 -2px;">29.06.2025</div><a href="/main/m/54/367/12638"> Great Britain</a><div style="font-size:8px; padding-left: 10px; margin:-5px 0 -2px;">06.07.2025</div><a href="/main/m/54/367/12639"> Belgium</a><div style="font-size:8px; padding-left: 10px; margin:-5px 0 -2px;">27.07.2025</div><a href="/main/m/54/367/12640"> Hungary</a><div style="font-size:8px; padding-left: 10px; margin:-5px 0 -2px;">03.08.2025</div><a href="/main/m/54/367/12641"> Netherlands</a><div style="font-size:8px; padding-left: 10px; margin:-5px 0 -2px;">31.08.2025</div><b> Italy</b> <div style="font-size:8px; padding-left: 10px; margin:-5px 0 -2px;">07.09.2025</div><a href="/main/m/54/367/12643"> Azerbaijan</a><div style="font-size:8px; padding-left: 10px; margin:-5px 0 -2px;">21.09.2025</div><a href="/main/m/54/367/12644"> Singapore</a><div style="font-size:8px; padding-left: 10px; margin:-5px 0 -2px;">05.10.2025</div><a href="/main/m/54/367/12645"> USA</a><div style="font-size:8px; padding-left: 10px; margin:-5px 0 -2px;">19.10.2025</div><a href="/main/m/54/367/12646"> Mexico</a><div style="font-size:8px; padding-left: 10px; margin:-5px 0 -2px;">26.10.2025</div><a href="/main/m/54/367/12647"> Brazil</a><div style="font-size:8px; padding-left: 10px; margin:-5px 0 -2px;">09.11.2025</div><a href="/main/m/54/367/12648"> Las Vegas</a><div style="font-size:8px; padding-left: 10px; margin:-5px 0 -2px;">22.11.2025</div><a href="/main/m/54/367/12649"> Qatar</a><div style="font-size:8px; padding-left: 10px; margin:-5px 0 -2px;">30.11.2025</div><a href="/main/m/54/367/12650"> Abu Dhabi</a><div style="font-size:8px; padding-left: 10px; margin:-5px 0 -2px;">07.12.2025</div><a href="/main/m/54/367/12847"> Abu Dhabi</a><div style="font-size:8px; padding-left: 10px; margin:-5px 0 -2px;">09.12.2025</div></td><td id="td_menu_holder"><!-- vertical menu --></td><td><!-- layout --><h2>16. Italy / Pirelli Gran Premio d'Italia / Monza</h2><div id="session_list">  | <a  href="/main/m/54/367/12642/-1">ENTRY LIST</a> | <a  href="/main/m/54/367/12642/59004">P1</a> | <a  href="/main/m/54/367/12642/59005">P2</a> | <a  href="/main/m/54/367/12642/59006">P3</a> | <a  href="/main/m/54/367/12642/59007">Q1</a> | <a  href="/main/m/54/367/12642/59008">Q2</a> | <a  href="/main/m/54/367/12642/59009">Q3</a> | <a  href="/main/m/54/367/12642/59010">CQ</a> | <a  href="/main/m/54/367/12642/59011">GRID</a> | <b >RACE</b> | <a href="/main/m/54/367/12642/59012/2">TYRE HISTORY</a> | <a  href="/main/m/54/367/12642/59013">FASTEST LAPS</a> | <a  href="/main/m/54/367/12642/59014">PIT STOPS</a> | <a  href="/main/m/54/367/12642/59015">SPEEDS</a></div> <br>  <h2>RACE</h2>&nbsp; <a href="/main/m/54/367/12642/59012/3">Data player</a>  &nbsp; <a href="/main/m/54/367/12642/59012/4">LIVE</a>  &nbsp; <a href="/main/m/54/367/12642/59012/5">LIVE 2</a>  &nbsp; <a href="/main/m/54/367/12642/59012/6">LV_5</a>  &nbsp; <a href="/main/m/54/367/12642/59012/7">DP_5</a> &nbsp;<a href="?v=4">Laps times</a><br><table><tr valign="top"><td><table class="results tab_59012" ><tr valign="top"><th align="right">cla</th><th align="left"></th><th align="right">#</th><th align="left">driver</th><th align="left">chassis</th><th align="left">engine</th><th align="right">laps</th><th align="right">time</th><th align="right">gap</th><th align="right">int</th><th align="right">km/h</th><th align="right">pits</th><th align="left">retirement</th><th align="right">pts</th><th align="right">pen</th><th align="right">reprim</th><th align="left">tyres change</th><th align="left">b_tyres</th></tr> 
Parsing GP 12643
Skipping incomplete row: <table><tr valign="top"><td><!-- layout --><form action="/main/m/" method="GET" class="sid_find_form"><input id="in_sid" type="text" name="sid" value="59271" title="sid"><button type="submit" title="find by sid">Go</button><button id="b_copy_sid_url" title="copy sid url">Url</button></form><script type="text/javascript">$(function(){$("#b_copy_sid_url").click(function(){var input = $("#in_sid");var sid = input.val();var url = "https://results.motorsport.com//main/m/?sid="+sid;input.val(url);input.select();document.execCommand("copy");input.val(sid);alert('session url copied to clipboard');return false;});});</script><br><select name="series" onchange="window.location.href = '/main/m/'+value"><option value="206" >ASIAN LE MANS</option><option value="30" >BTCC</option><option value="45" >DTM</option><option value="104" >EUROPEAN LE MANS</option><option value="6216" >F1 Academy</option><option value="54"  selected>FORMULA 1</option><option value="208" >FORMULA E</option><option value="73" >GP2</option><option value="74" >GP3</option><option value="211" >GT-MASTERS</option><option value="207" >IMSA</option><option value="87" >INDY LIGHTS</option><option value="86" >INDYCAR</option><option value="212" >MOTO2</option><option value="213" >MOTO3</option><option value="112" >MOTOGP</option><option value="1772" >MX2</option><option value="1771" >MXGP</option><option value="119" >NASCAR SPRINT CUP</option><option value="126" >NASCAR TRUCK</option><option value="124" >NASCAR XFINITY</option><option value="852" >STOCK CAR BRAZIL</option><option value="1101" >SUPER FORMULA</option><option value="172" >SUPER GT</option><option value="6098" >TCR AUSTRALIA</option><option value="18" >V8 SUPERCARS</option><option value="205" >WEC</option><option value="160" >WORLD CHALLENGE</option><option value="210" >WORLD RALLYCROSS</option><option value="194" >WORLD SUPERBIKE</option><option value="193" >WRC</option><option value="5551" >WTCR</option></select><br><br><select name="championship" onchange="window.location.href = '/main/m/54/'+value"><option value="367"  selected> 2025</option><option value="336" > 2024</option><option value="307" > 2023</option><option value="280" > 2022</option><option value="242" > 2021</option><option value="213" > 2020</option><option value="189" > 2019</option><option value="165" > 2018</option><option value="127" > 2017</option><option value="76" > 2016</option><option value="66" > 2015</option><option value="65" > 2014</option><option value="64" > 2013</option><option value="63" > 2012</option><option value="62" > 2011</option><option value="61" > 2010</option><option value="60" > 2009</option><option value="59" > 2008</option><option value="58" > 2007</option><option value="57" > 2006</option><option value="56" > 2005</option><option value="55" > 2004</option><option value="54" > 2003</option><option value="53" > 2002</option><option value="52" > 2001</option><option value="51" > 2000</option><option value="50" > 1999</option><option value="49" > 1998</option><option value="48" > 1997</option><option value="47" > 1996</option><option value="46" > 1995</option><option value="45" > 1994</option><option value="44" > 1993</option><option value="43" > 1992</option><option value="42" > 1991</option><option value="41" > 1990</option><option value="40" > 1989</option><option value="39" > 1988</option><option value="38" > 1987</option><option value="37" > 1986</option><option value="36" > 1985</option><option value="35" > 1984</option><option value="34" > 1983</option><option value="33" > 1982</option><option value="32" > 1981</option><option value="31" > 1980</option><option value="30" > 1979</option><option value="29" > 1978</option><option value="28" > 1977</option><option value="27" > 1976</option><option value="26" > 1975</option><option value="25" > 1974</option><option value="24" > 1973</option><option value="23" > 1972</option><option value="22" > 1971</option><option value="21" > 1970</option><option value="20" > 1969</option><option value="19" > 1968</option><option value="18" > 1967</option><option value="17" > 1966</option><option value="16" > 1965</option><option value="15" > 1964</option><option value="14" > 1963</option><option value="13" > 1962</option><option value="12" > 1961</option><option value="11" > 1960</option><option value="10" > 1959</option><option value="9" > 1958</option><option value="8" > 1957</option><option value="7" > 1956</option><option value="6" > 1955</option><option value="5" > 1954</option><option value="4" > 1953</option><option value="3" > 1952</option><option value="2" > 1951</option><option value="1" > 1950</option></select>    <br><br><a href="/main/m/54/367/-2">Drivers Championship</a><br><a href="/main/m/54/367/-3">Constructors Championship</a><br><a href="/main/m/54/367/-10">Drivers penalty points</a><br><a href="/main/m/54/367/-20">Drivers reprimands</a><br><br>    <a href="/main/m/54/367/12651"> Bahrain</a><div style="font-size:8px; padding-left: 10px; margin:-5px 0 -2px;">28.02.2025</div><a href="/main/m/54/367/12627"> Australia</a><div style="font-size:8px; padding-left: 10px; margin:-5px 0 -2px;">16.03.2025</div><a href="/main/m/54/367/12628"> China</a><div style="font-size:8px; padding-left: 10px; margin:-5px 0 -2px;">23.03.2025</div><a href="/main/m/54/367/12629"> Japan</a><div style="font-size:8px; padding-left: 10px; margin:-5px 0 -2px;">06.04.2025</div><a href="/main/m/54/367/12630"> Bahrain</a><div style="font-size:8px; padding-left: 10px; margin:-5px 0 -2px;">13.04.2025</div><a href="/main/m/54/367/12631"> Saudi Arabia</a><div style="font-size:8px; padding-left: 10px; margin:-5px 0 -2px;">20.04.2025</div><a href="/main/m/54/367/12632"> Miami</a><div style="font-size:8px; padding-left: 10px; margin:-5px 0 -2px;">04.05.2025</div><a href="/main/m/54/367/12633"> Emilia Romagna</a><div style="font-size:8px; padding-left: 10px; margin:-5px 0 -2px;">18.05.2025</div><a href="/main/m/54/367/12634"> Monaco</a><div style="font-size:8px; padding-left: 10px; margin:-5px 0 -2px;">25.05.2025</div><a href="/main/m/54/367/12635"> Spain</a><div style="font-size:8px; padding-left: 10px; margin:-5px 0 -2px;">01.06.2025</div><a href="/main/m/54/367/12636"> Canada</a><div style="font-size:8px; padding-left: 10px; margin:-5px 0 -2px;">15.06.2025</div><a href="/main/m/54/367/12637"> Austria</a><div style="font-size:8px; padding-left: 10px; margin:-5px 0 -2px;">29.06.2025</div><a href="/main/m/54/367/12638"> Great Britain</a><div style="font-size:8px; padding-left: 10px; margin:-5px 0 -2px;">06.07.2025</div><a href="/main/m/54/367/12639"> Belgium</a><div style="font-size:8px; padding-left: 10px; margin:-5px 0 -2px;">27.07.2025</div><a href="/main/m/54/367/12640"> Hungary</a><div style="font-size:8px; padding-left: 10px; margin:-5px 0 -2px;">03.08.2025</div><a href="/main/m/54/367/12641"> Netherlands</a><div style="font-size:8px; padding-left: 10px; margin:-5px 0 -2px;">31.08.2025</div><a href="/main/m/54/367/12642"> Italy</a><div style="font-size:8px; padding-left: 10px; margin:-5px 0 -2px;">07.09.2025</div><b> Azerbaijan</b> <div style="font-size:8px; padding-left: 10px; margin:-5px 0 -2px;">21.09.2025</div><a href="/main/m/54/367/12644"> Singapore</a><div style="font-size:8px; padding-left: 10px; margin:-5px 0 -2px;">05.10.2025</div><a href="/main/m/54/367/12645"> USA</a><div style="font-size:8px; padding-left: 10px; margin:-5px 0 -2px;">19.10.2025</div><a href="/main/m/54/367/12646"> Mexico</a><div style="font-size:8px; padding-left: 10px; margin:-5px 0 -2px;">26.10.2025</div><a href="/main/m/54/367/12647"> Brazil</a><div style="font-size:8px; padding-left: 10px; margin:-5px 0 -2px;">09.11.2025</div><a href="/main/m/54/367/12648"> Las Vegas</a><div style="font-size:8px; padding-left: 10px; margin:-5px 0 -2px;">22.11.2025</div><a href="/main/m/54/367/12649"> Qatar</a><div style="font-size:8px; padding-left: 10px; margin:-5px 0 -2px;">30.11.2025</div><a href="/main/m/54/367/12650"> Abu Dhabi</a><div style="font-size:8px; padding-left: 10px; margin:-5px 0 -2px;">07.12.2025</div><a href="/main/m/54/367/12847"> Abu Dhabi</a><div style="font-size:8px; padding-left: 10px; margin:-5px 0 -2px;">09.12.2025</div></td><td id="td_menu_holder"><!-- vertical menu --></td><td><!-- layout --><h2>17. Azerbaijan / Azerbaijan Grand Prix / Baku</h2><div id="session_list">  | <a  href="/main/m/54/367/12643/-1">ENTRY LIST</a> | <a  href="/main/m/54/367/12643/59263">P1</a> | <a  href="/main/m/54/367/12643/59264">P2</a> | <a  href="/main/m/54/367/12643/59265">P3</a> | <a  href="/main/m/54/367/12643/59266">Q1</a> | <a  href="/main/m/54/367/12643/59267">Q2</a> | <a  href="/main/m/54/367/12643/59268">Q3</a> | <a  href="/main/m/54/367/12643/59269">CQ</a> | <a  href="/main/m/54/367/12643/59270">GRID</a> | <b >RACE</b> | <a href="/main/m/54/367/12643/59271/2">TYRE HISTORY</a> | <a  href="/main/m/54/367/12643/59272">FASTEST LAPS</a> | <a  href="/main/m/54/367/12643/59273">PIT STOPS</a> | <a  href="/main/m/54/367/12643/59274">SPEEDS</a></div> <br>  <h2>RACE</h2>&nbsp; <a href="/main/m/54/367/12643/59271/3">Data player</a>  &nbsp; <a href="/main/m/54/367/12643/59271/4">LIVE</a>  &nbsp; <a href="/main/m/54/367/12643/59271/5">LIVE 2</a>  &nbsp; <a href="/main/m/54/367/12643/59271/6">LV_5</a>  &nbsp; <a href="/main/m/54/367/12643/59271/7">DP_5</a> &nbsp;<a href="?v=4">Laps times</a><br><table><tr valign="top"><td><table class="results tab_59271" ><tr valign="top"><th align="right">cla</th><th align="left"></th><th align="right">#</th><th align="left">driver</th><th align="left">chassis</th><th align="left">engine</th><th align="right">laps</th><th align="right">time</th><th align="right">gap</th><th align="right">int</th><th align="right">km/h</th><th align="right">pits</th><th align="left">retirement</th><th align="right">pts</th><th align="right">pen</th><th align="right"style="background-color: #fcc">reprim</th><th align="left">tyres change</th><th align="left">b_tyres</th></tr> 
Parsing GP 12644
Skipping incomplete row: <table><tr valign="top"><td><!-- layout --><form action="/main/m/" method="GET" class="sid_find_form"><input id="in_sid" type="text" name="sid" value="59428" title="sid"><button type="submit" title="find by sid">Go</button><button id="b_copy_sid_url" title="copy sid url">Url</button></form><script type="text/javascript">$(function(){$("#b_copy_sid_url").click(function(){var input = $("#in_sid");var sid = input.val();var url = "https://results.motorsport.com//main/m/?sid="+sid;input.val(url);input.select();document.execCommand("copy");input.val(sid);alert('session url copied to clipboard');return false;});});</script><br><select name="series" onchange="window.location.href = '/main/m/'+value"><option value="206" >ASIAN LE MANS</option><option value="30" >BTCC</option><option value="45" >DTM</option><option value="104" >EUROPEAN LE MANS</option><option value="6216" >F1 Academy</option><option value="54"  selected>FORMULA 1</option><option value="208" >FORMULA E</option><option value="73" >GP2</option><option value="74" >GP3</option><option value="211" >GT-MASTERS</option><option value="207" >IMSA</option><option value="87" >INDY LIGHTS</option><option value="86" >INDYCAR</option><option value="212" >MOTO2</option><option value="213" >MOTO3</option><option value="112" >MOTOGP</option><option value="1772" >MX2</option><option value="1771" >MXGP</option><option value="119" >NASCAR SPRINT CUP</option><option value="126" >NASCAR TRUCK</option><option value="124" >NASCAR XFINITY</option><option value="852" >STOCK CAR BRAZIL</option><option value="1101" >SUPER FORMULA</option><option value="172" >SUPER GT</option><option value="6098" >TCR AUSTRALIA</option><option value="18" >V8 SUPERCARS</option><option value="205" >WEC</option><option value="160" >WORLD CHALLENGE</option><option value="210" >WORLD RALLYCROSS</option><option value="194" >WORLD SUPERBIKE</option><option value="193" >WRC</option><option value="5551" >WTCR</option></select><br><br><select name="championship" onchange="window.location.href = '/main/m/54/'+value"><option value="367"  selected> 2025</option><option value="336" > 2024</option><option value="307" > 2023</option><option value="280" > 2022</option><option value="242" > 2021</option><option value="213" > 2020</option><option value="189" > 2019</option><option value="165" > 2018</option><option value="127" > 2017</option><option value="76" > 2016</option><option value="66" > 2015</option><option value="65" > 2014</option><option value="64" > 2013</option><option value="63" > 2012</option><option value="62" > 2011</option><option value="61" > 2010</option><option value="60" > 2009</option><option value="59" > 2008</option><option value="58" > 2007</option><option value="57" > 2006</option><option value="56" > 2005</option><option value="55" > 2004</option><option value="54" > 2003</option><option value="53" > 2002</option><option value="52" > 2001</option><option value="51" > 2000</option><option value="50" > 1999</option><option value="49" > 1998</option><option value="48" > 1997</option><option value="47" > 1996</option><option value="46" > 1995</option><option value="45" > 1994</option><option value="44" > 1993</option><option value="43" > 1992</option><option value="42" > 1991</option><option value="41" > 1990</option><option value="40" > 1989</option><option value="39" > 1988</option><option value="38" > 1987</option><option value="37" > 1986</option><option value="36" > 1985</option><option value="35" > 1984</option><option value="34" > 1983</option><option value="33" > 1982</option><option value="32" > 1981</option><option value="31" > 1980</option><option value="30" > 1979</option><option value="29" > 1978</option><option value="28" > 1977</option><option value="27" > 1976</option><option value="26" > 1975</option><option value="25" > 1974</option><option value="24" > 1973</option><option value="23" > 1972</option><option value="22" > 1971</option><option value="21" > 1970</option><option value="20" > 1969</option><option value="19" > 1968</option><option value="18" > 1967</option><option value="17" > 1966</option><option value="16" > 1965</option><option value="15" > 1964</option><option value="14" > 1963</option><option value="13" > 1962</option><option value="12" > 1961</option><option value="11" > 1960</option><option value="10" > 1959</option><option value="9" > 1958</option><option value="8" > 1957</option><option value="7" > 1956</option><option value="6" > 1955</option><option value="5" > 1954</option><option value="4" > 1953</option><option value="3" > 1952</option><option value="2" > 1951</option><option value="1" > 1950</option></select>    <br><br><a href="/main/m/54/367/-2">Drivers Championship</a><br><a href="/main/m/54/367/-3">Constructors Championship</a><br><a href="/main/m/54/367/-10">Drivers penalty points</a><br><a href="/main/m/54/367/-20">Drivers reprimands</a><br><br>    <a href="/main/m/54/367/12651"> Bahrain</a><div style="font-size:8px; padding-left: 10px; margin:-5px 0 -2px;">28.02.2025</div><a href="/main/m/54/367/12627"> Australia</a><div style="font-size:8px; padding-left: 10px; margin:-5px 0 -2px;">16.03.2025</div><a href="/main/m/54/367/12628"> China</a><div style="font-size:8px; padding-left: 10px; margin:-5px 0 -2px;">23.03.2025</div><a href="/main/m/54/367/12629"> Japan</a><div style="font-size:8px; padding-left: 10px; margin:-5px 0 -2px;">06.04.2025</div><a href="/main/m/54/367/12630"> Bahrain</a><div style="font-size:8px; padding-left: 10px; margin:-5px 0 -2px;">13.04.2025</div><a href="/main/m/54/367/12631"> Saudi Arabia</a><div style="font-size:8px; padding-left: 10px; margin:-5px 0 -2px;">20.04.2025</div><a href="/main/m/54/367/12632"> Miami</a><div style="font-size:8px; padding-left: 10px; margin:-5px 0 -2px;">04.05.2025</div><a href="/main/m/54/367/12633"> Emilia Romagna</a><div style="font-size:8px; padding-left: 10px; margin:-5px 0 -2px;">18.05.2025</div><a href="/main/m/54/367/12634"> Monaco</a><div style="font-size:8px; padding-left: 10px; margin:-5px 0 -2px;">25.05.2025</div><a href="/main/m/54/367/12635"> Spain</a><div style="font-size:8px; padding-left: 10px; margin:-5px 0 -2px;">01.06.2025</div><a href="/main/m/54/367/12636"> Canada</a><div style="font-size:8px; padding-left: 10px; margin:-5px 0 -2px;">15.06.2025</div><a href="/main/m/54/367/12637"> Austria</a><div style="font-size:8px; padding-left: 10px; margin:-5px 0 -2px;">29.06.2025</div><a href="/main/m/54/367/12638"> Great Britain</a><div style="font-size:8px; padding-left: 10px; margin:-5px 0 -2px;">06.07.2025</div><a href="/main/m/54/367/12639"> Belgium</a><div style="font-size:8px; padding-left: 10px; margin:-5px 0 -2px;">27.07.2025</div><a href="/main/m/54/367/12640"> Hungary</a><div style="font-size:8px; padding-left: 10px; margin:-5px 0 -2px;">03.08.2025</div><a href="/main/m/54/367/12641"> Netherlands</a><div style="font-size:8px; padding-left: 10px; margin:-5px 0 -2px;">31.08.2025</div><a href="/main/m/54/367/12642"> Italy</a><div style="font-size:8px; padding-left: 10px; margin:-5px 0 -2px;">07.09.2025</div><a href="/main/m/54/367/12643"> Azerbaijan</a><div style="font-size:8px; padding-left: 10px; margin:-5px 0 -2px;">21.09.2025</div><b> Singapore</b> <div style="font-size:8px; padding-left: 10px; margin:-5px 0 -2px;">05.10.2025</div><a href="/main/m/54/367/12645"> USA</a><div style="font-size:8px; padding-left: 10px; margin:-5px 0 -2px;">19.10.2025</div><a href="/main/m/54/367/12646"> Mexico</a><div style="font-size:8px; padding-left: 10px; margin:-5px 0 -2px;">26.10.2025</div><a href="/main/m/54/367/12647"> Brazil</a><div style="font-size:8px; padding-left: 10px; margin:-5px 0 -2px;">09.11.2025</div><a href="/main/m/54/367/12648"> Las Vegas</a><div style="font-size:8px; padding-left: 10px; margin:-5px 0 -2px;">22.11.2025</div><a href="/main/m/54/367/12649"> Qatar</a><div style="font-size:8px; padding-left: 10px; margin:-5px 0 -2px;">30.11.2025</div><a href="/main/m/54/367/12650"> Abu Dhabi</a><div style="font-size:8px; padding-left: 10px; margin:-5px 0 -2px;">07.12.2025</div><a href="/main/m/54/367/12847"> Abu Dhabi</a><div style="font-size:8px; padding-left: 10px; margin:-5px 0 -2px;">09.12.2025</div></td><td id="td_menu_holder"><!-- vertical menu --></td><td><!-- layout --><h2>18. Singapore / Singapore Airlines Singapore Grand Prix / Singapore</h2><div id="session_list">  | <a  href="/main/m/54/367/12644/-1">ENTRY LIST</a> | <a  href="/main/m/54/367/12644/59420">P1</a> | <a  href="/main/m/54/367/12644/59421">P2</a> | <a  href="/main/m/54/367/12644/59422">P3</a> | <a  href="/main/m/54/367/12644/59423">Q1</a> | <a  href="/main/m/54/367/12644/59424">Q2</a> | <a  href="/main/m/54/367/12644/59425">Q3</a> | <a  href="/main/m/54/367/12644/59426">CQ</a> | <a  href="/main/m/54/367/12644/59427">GRID</a> | <b >RACE</b> | <a href="/main/m/54/367/12644/59428/2">TYRE HISTORY</a> | <a  href="/main/m/54/367/12644/59429">FASTEST LAPS</a> | <a  href="/main/m/54/367/12644/59430">PIT STOPS</a> | <a  href="/main/m/54/367/12644/59431">SPEEDS</a></div> <br>  <h2>RACE</h2>&nbsp; <a href="/main/m/54/367/12644/59428/3">Data player</a>  &nbsp; <a href="/main/m/54/367/12644/59428/4">LIVE</a>  &nbsp; <a href="/main/m/54/367/12644/59428/5">LIVE 2</a>  &nbsp; <a href="/main/m/54/367/12644/59428/6">LV_5</a>  &nbsp; <a href="/main/m/54/367/12644/59428/7">DP_5</a> &nbsp;<a href="?v=4">Laps times</a><br><table class="results tab_59428" ><tr valign="top"><th align="right">cla</th><th align="left"style="background-color: #fcc"></th><th align="right">#</th><th align="left">driver</th><th align="left">chassis</th><th align="left">engine</th><th align="right">laps</th><th align="right">time</th><th align="right">gap</th><th align="right">int</th><th align="right">km/h</th><th align="right">pits</th><th align="left"style="background-color: #fcc">retirement</th><th align="right">pts</th><th align="right"style="background-color: #fcc">pen</th><th align="right">reprim</th><th align="left">tyres change</th><th align="left">b_tyres</th></tr> 
Parsing GP 12645
Skipping incomplete row: <table><tr valign="top"><td><!-- layout --><form action="/main/m/" method="GET" class="sid_find_form"><input id="in_sid" type="text" name="sid" value="59595" title="sid"><button type="submit" title="find by sid">Go</button><button id="b_copy_sid_url" title="copy sid url">Url</button></form><script type="text/javascript">$(function(){$("#b_copy_sid_url").click(function(){var input = $("#in_sid");var sid = input.val();var url = "https://results.motorsport.com//main/m/?sid="+sid;input.val(url);input.select();document.execCommand("copy");input.val(sid);alert('session url copied to clipboard');return false;});});</script><br><select name="series" onchange="window.location.href = '/main/m/'+value"><option value="206" >ASIAN LE MANS</option><option value="30" >BTCC</option><option value="45" >DTM</option><option value="104" >EUROPEAN LE MANS</option><option value="6216" >F1 Academy</option><option value="54"  selected>FORMULA 1</option><option value="208" >FORMULA E</option><option value="73" >GP2</option><option value="74" >GP3</option><option value="211" >GT-MASTERS</option><option value="207" >IMSA</option><option value="87" >INDY LIGHTS</option><option value="86" >INDYCAR</option><option value="212" >MOTO2</option><option value="213" >MOTO3</option><option value="112" >MOTOGP</option><option value="1772" >MX2</option><option value="1771" >MXGP</option><option value="119" >NASCAR SPRINT CUP</option><option value="126" >NASCAR TRUCK</option><option value="124" >NASCAR XFINITY</option><option value="852" >STOCK CAR BRAZIL</option><option value="1101" >SUPER FORMULA</option><option value="172" >SUPER GT</option><option value="6098" >TCR AUSTRALIA</option><option value="18" >V8 SUPERCARS</option><option value="205" >WEC</option><option value="160" >WORLD CHALLENGE</option><option value="210" >WORLD RALLYCROSS</option><option value="194" >WORLD SUPERBIKE</option><option value="193" >WRC</option><option value="5551" >WTCR</option></select><br><br><select name="championship" onchange="window.location.href = '/main/m/54/'+value"><option value="367"  selected> 2025</option><option value="336" > 2024</option><option value="307" > 2023</option><option value="280" > 2022</option><option value="242" > 2021</option><option value="213" > 2020</option><option value="189" > 2019</option><option value="165" > 2018</option><option value="127" > 2017</option><option value="76" > 2016</option><option value="66" > 2015</option><option value="65" > 2014</option><option value="64" > 2013</option><option value="63" > 2012</option><option value="62" > 2011</option><option value="61" > 2010</option><option value="60" > 2009</option><option value="59" > 2008</option><option value="58" > 2007</option><option value="57" > 2006</option><option value="56" > 2005</option><option value="55" > 2004</option><option value="54" > 2003</option><option value="53" > 2002</option><option value="52" > 2001</option><option value="51" > 2000</option><option value="50" > 1999</option><option value="49" > 1998</option><option value="48" > 1997</option><option value="47" > 1996</option><option value="46" > 1995</option><option value="45" > 1994</option><option value="44" > 1993</option><option value="43" > 1992</option><option value="42" > 1991</option><option value="41" > 1990</option><option value="40" > 1989</option><option value="39" > 1988</option><option value="38" > 1987</option><option value="37" > 1986</option><option value="36" > 1985</option><option value="35" > 1984</option><option value="34" > 1983</option><option value="33" > 1982</option><option value="32" > 1981</option><option value="31" > 1980</option><option value="30" > 1979</option><option value="29" > 1978</option><option value="28" > 1977</option><option value="27" > 1976</option><option value="26" > 1975</option><option value="25" > 1974</option><option value="24" > 1973</option><option value="23" > 1972</option><option value="22" > 1971</option><option value="21" > 1970</option><option value="20" > 1969</option><option value="19" > 1968</option><option value="18" > 1967</option><option value="17" > 1966</option><option value="16" > 1965</option><option value="15" > 1964</option><option value="14" > 1963</option><option value="13" > 1962</option><option value="12" > 1961</option><option value="11" > 1960</option><option value="10" > 1959</option><option value="9" > 1958</option><option value="8" > 1957</option><option value="7" > 1956</option><option value="6" > 1955</option><option value="5" > 1954</option><option value="4" > 1953</option><option value="3" > 1952</option><option value="2" > 1951</option><option value="1" > 1950</option></select>    <br><br><a href="/main/m/54/367/-2">Drivers Championship</a><br><a href="/main/m/54/367/-3">Constructors Championship</a><br><a href="/main/m/54/367/-10">Drivers penalty points</a><br><a href="/main/m/54/367/-20">Drivers reprimands</a><br><br>    <a href="/main/m/54/367/12651"> Bahrain</a><div style="font-size:8px; padding-left: 10px; margin:-5px 0 -2px;">28.02.2025</div><a href="/main/m/54/367/12627"> Australia</a><div style="font-size:8px; padding-left: 10px; margin:-5px 0 -2px;">16.03.2025</div><a href="/main/m/54/367/12628"> China</a><div style="font-size:8px; padding-left: 10px; margin:-5px 0 -2px;">23.03.2025</div><a href="/main/m/54/367/12629"> Japan</a><div style="font-size:8px; padding-left: 10px; margin:-5px 0 -2px;">06.04.2025</div><a href="/main/m/54/367/12630"> Bahrain</a><div style="font-size:8px; padding-left: 10px; margin:-5px 0 -2px;">13.04.2025</div><a href="/main/m/54/367/12631"> Saudi Arabia</a><div style="font-size:8px; padding-left: 10px; margin:-5px 0 -2px;">20.04.2025</div><a href="/main/m/54/367/12632"> Miami</a><div style="font-size:8px; padding-left: 10px; margin:-5px 0 -2px;">04.05.2025</div><a href="/main/m/54/367/12633"> Emilia Romagna</a><div style="font-size:8px; padding-left: 10px; margin:-5px 0 -2px;">18.05.2025</div><a href="/main/m/54/367/12634"> Monaco</a><div style="font-size:8px; padding-left: 10px; margin:-5px 0 -2px;">25.05.2025</div><a href="/main/m/54/367/12635"> Spain</a><div style="font-size:8px; padding-left: 10px; margin:-5px 0 -2px;">01.06.2025</div><a href="/main/m/54/367/12636"> Canada</a><div style="font-size:8px; padding-left: 10px; margin:-5px 0 -2px;">15.06.2025</div><a href="/main/m/54/367/12637"> Austria</a><div style="font-size:8px; padding-left: 10px; margin:-5px 0 -2px;">29.06.2025</div><a href="/main/m/54/367/12638"> Great Britain</a><div style="font-size:8px; padding-left: 10px; margin:-5px 0 -2px;">06.07.2025</div><a href="/main/m/54/367/12639"> Belgium</a><div style="font-size:8px; padding-left: 10px; margin:-5px 0 -2px;">27.07.2025</div><a href="/main/m/54/367/12640"> Hungary</a><div style="font-size:8px; padding-left: 10px; margin:-5px 0 -2px;">03.08.2025</div><a href="/main/m/54/367/12641"> Netherlands</a><div style="font-size:8px; padding-left: 10px; margin:-5px 0 -2px;">31.08.2025</div><a href="/main/m/54/367/12642"> Italy</a><div style="font-size:8px; padding-left: 10px; margin:-5px 0 -2px;">07.09.2025</div><a href="/main/m/54/367/12643"> Azerbaijan</a><div style="font-size:8px; padding-left: 10px; margin:-5px 0 -2px;">21.09.2025</div><a href="/main/m/54/367/12644"> Singapore</a><div style="font-size:8px; padding-left: 10px; margin:-5px 0 -2px;">05.10.2025</div><b> USA</b> <div style="font-size:8px; padding-left: 10px; margin:-5px 0 -2px;">19.10.2025</div><a href="/main/m/54/367/12646"> Mexico</a><div style="font-size:8px; padding-left: 10px; margin:-5px 0 -2px;">26.10.2025</div><a href="/main/m/54/367/12647"> Brazil</a><div style="font-size:8px; padding-left: 10px; margin:-5px 0 -2px;">09.11.2025</div><a href="/main/m/54/367/12648"> Las Vegas</a><div style="font-size:8px; padding-left: 10px; margin:-5px 0 -2px;">22.11.2025</div><a href="/main/m/54/367/12649"> Qatar</a><div style="font-size:8px; padding-left: 10px; margin:-5px 0 -2px;">30.11.2025</div><a href="/main/m/54/367/12650"> Abu Dhabi</a><div style="font-size:8px; padding-left: 10px; margin:-5px 0 -2px;">07.12.2025</div><a href="/main/m/54/367/12847"> Abu Dhabi</a><div style="font-size:8px; padding-left: 10px; margin:-5px 0 -2px;">09.12.2025</div></td><td id="td_menu_holder"><!-- vertical menu --></td><td><!-- layout --><h2>19. USA / Lenovo United States Grand Prix / Circuit of the Americas</h2><div id="session_list">  | <a  href="/main/m/54/367/12645/-1">ENTRY LIST</a> | <a  href="/main/m/54/367/12645/59584">P1</a> | <a  href="/main/m/54/367/12645/59585">SQ1</a> | <a  href="/main/m/54/367/12645/59586">SQ2</a> | <a  href="/main/m/54/367/12645/59587">SQ3</a> | <a  href="/main/m/54/367/12645/59600">CSQ</a> | <a  href="/main/m/54/367/12645/59588">SPR GRID</a> | <a  href="/main/m/54/367/12645/59589">SPR</a> | <a  href="/main/m/54/367/12645/59590">SPR FL</a> | <a  href="/main/m/54/367/12645/59591">Q1</a> | <a  href="/main/m/54/367/12645/59592">Q2</a> | <a  href="/main/m/54/367/12645/59593">Q3</a> | <a  href="/main/m/54/367/12645/59599">CQ</a> | <a  href="/main/m/54/367/12645/59594">GRID</a> | <b >RACE</b> | <a href="/main/m/54/367/12645/59595/2">TYRE HISTORY</a> | <a  href="/main/m/54/367/12645/59596">FASTEST LAPS</a> | <a  href="/main/m/54/367/12645/59597">PIT STOPS</a> | <a  href="/main/m/54/367/12645/59598">SPEEDS</a></div> <br>  <h2>RACE</h2>&nbsp; <a href="/main/m/54/367/12645/59595/3">Data player</a>  &nbsp; <a href="/main/m/54/367/12645/59595/4">LIVE</a>  &nbsp; <a href="/main/m/54/367/12645/59595/5">LIVE 2</a>  &nbsp; <a href="/main/m/54/367/12645/59595/6">LV_5</a>  &nbsp; <a href="/main/m/54/367/12645/59595/7">DP_5</a> &nbsp;<a href="?v=4">Laps times</a><br><table><tr valign="top"><td><table class="results tab_59595" ><tr valign="top"><th align="right">cla</th><th align="left"></th><th align="right">#</th><th align="left">driver</th><th align="left">chassis</th><th align="left">engine</th><th align="right">laps</th><th align="right">time</th><th align="right">gap</th><th align="right">int</th><th align="right">km/h</th><th align="right">pits</th><th align="left">retirement</th><th align="right">pts</th><th align="right">pen</th><th align="right"style="background-color: #fcc">reprim</th><th align="left">tyres change</th><th align="left">b_tyres</th></tr> 
Parsing GP 12646
Skipping incomplete row: <table><tr valign="top"><td><!-- layout --><form action="/main/m/" method="GET" class="sid_find_form"><input id="in_sid" type="text" name="sid" value="59695" title="sid"><button type="submit" title="find by sid">Go</button><button id="b_copy_sid_url" title="copy sid url">Url</button></form><script type="text/javascript">$(function(){$("#b_copy_sid_url").click(function(){var input = $("#in_sid");var sid = input.val();var url = "https://results.motorsport.com//main/m/?sid="+sid;input.val(url);input.select();document.execCommand("copy");input.val(sid);alert('session url copied to clipboard');return false;});});</script><br><select name="series" onchange="window.location.href = '/main/m/'+value"><option value="206" >ASIAN LE MANS</option><option value="30" >BTCC</option><option value="45" >DTM</option><option value="104" >EUROPEAN LE MANS</option><option value="6216" >F1 Academy</option><option value="54"  selected>FORMULA 1</option><option value="208" >FORMULA E</option><option value="73" >GP2</option><option value="74" >GP3</option><option value="211" >GT-MASTERS</option><option value="207" >IMSA</option><option value="87" >INDY LIGHTS</option><option value="86" >INDYCAR</option><option value="212" >MOTO2</option><option value="213" >MOTO3</option><option value="112" >MOTOGP</option><option value="1772" >MX2</option><option value="1771" >MXGP</option><option value="119" >NASCAR SPRINT CUP</option><option value="126" >NASCAR TRUCK</option><option value="124" >NASCAR XFINITY</option><option value="852" >STOCK CAR BRAZIL</option><option value="1101" >SUPER FORMULA</option><option value="172" >SUPER GT</option><option value="6098" >TCR AUSTRALIA</option><option value="18" >V8 SUPERCARS</option><option value="205" >WEC</option><option value="160" >WORLD CHALLENGE</option><option value="210" >WORLD RALLYCROSS</option><option value="194" >WORLD SUPERBIKE</option><option value="193" >WRC</option><option value="5551" >WTCR</option></select><br><br><select name="championship" onchange="window.location.href = '/main/m/54/'+value"><option value="367"  selected> 2025</option><option value="336" > 2024</option><option value="307" > 2023</option><option value="280" > 2022</option><option value="242" > 2021</option><option value="213" > 2020</option><option value="189" > 2019</option><option value="165" > 2018</option><option value="127" > 2017</option><option value="76" > 2016</option><option value="66" > 2015</option><option value="65" > 2014</option><option value="64" > 2013</option><option value="63" > 2012</option><option value="62" > 2011</option><option value="61" > 2010</option><option value="60" > 2009</option><option value="59" > 2008</option><option value="58" > 2007</option><option value="57" > 2006</option><option value="56" > 2005</option><option value="55" > 2004</option><option value="54" > 2003</option><option value="53" > 2002</option><option value="52" > 2001</option><option value="51" > 2000</option><option value="50" > 1999</option><option value="49" > 1998</option><option value="48" > 1997</option><option value="47" > 1996</option><option value="46" > 1995</option><option value="45" > 1994</option><option value="44" > 1993</option><option value="43" > 1992</option><option value="42" > 1991</option><option value="41" > 1990</option><option value="40" > 1989</option><option value="39" > 1988</option><option value="38" > 1987</option><option value="37" > 1986</option><option value="36" > 1985</option><option value="35" > 1984</option><option value="34" > 1983</option><option value="33" > 1982</option><option value="32" > 1981</option><option value="31" > 1980</option><option value="30" > 1979</option><option value="29" > 1978</option><option value="28" > 1977</option><option value="27" > 1976</option><option value="26" > 1975</option><option value="25" > 1974</option><option value="24" > 1973</option><option value="23" > 1972</option><option value="22" > 1971</option><option value="21" > 1970</option><option value="20" > 1969</option><option value="19" > 1968</option><option value="18" > 1967</option><option value="17" > 1966</option><option value="16" > 1965</option><option value="15" > 1964</option><option value="14" > 1963</option><option value="13" > 1962</option><option value="12" > 1961</option><option value="11" > 1960</option><option value="10" > 1959</option><option value="9" > 1958</option><option value="8" > 1957</option><option value="7" > 1956</option><option value="6" > 1955</option><option value="5" > 1954</option><option value="4" > 1953</option><option value="3" > 1952</option><option value="2" > 1951</option><option value="1" > 1950</option></select>    <br><br><a href="/main/m/54/367/-2">Drivers Championship</a><br><a href="/main/m/54/367/-3">Constructors Championship</a><br><a href="/main/m/54/367/-10">Drivers penalty points</a><br><a href="/main/m/54/367/-20">Drivers reprimands</a><br><br>    <a href="/main/m/54/367/12651"> Bahrain</a><div style="font-size:8px; padding-left: 10px; margin:-5px 0 -2px;">28.02.2025</div><a href="/main/m/54/367/12627"> Australia</a><div style="font-size:8px; padding-left: 10px; margin:-5px 0 -2px;">16.03.2025</div><a href="/main/m/54/367/12628"> China</a><div style="font-size:8px; padding-left: 10px; margin:-5px 0 -2px;">23.03.2025</div><a href="/main/m/54/367/12629"> Japan</a><div style="font-size:8px; padding-left: 10px; margin:-5px 0 -2px;">06.04.2025</div><a href="/main/m/54/367/12630"> Bahrain</a><div style="font-size:8px; padding-left: 10px; margin:-5px 0 -2px;">13.04.2025</div><a href="/main/m/54/367/12631"> Saudi Arabia</a><div style="font-size:8px; padding-left: 10px; margin:-5px 0 -2px;">20.04.2025</div><a href="/main/m/54/367/12632"> Miami</a><div style="font-size:8px; padding-left: 10px; margin:-5px 0 -2px;">04.05.2025</div><a href="/main/m/54/367/12633"> Emilia Romagna</a><div style="font-size:8px; padding-left: 10px; margin:-5px 0 -2px;">18.05.2025</div><a href="/main/m/54/367/12634"> Monaco</a><div style="font-size:8px; padding-left: 10px; margin:-5px 0 -2px;">25.05.2025</div><a href="/main/m/54/367/12635"> Spain</a><div style="font-size:8px; padding-left: 10px; margin:-5px 0 -2px;">01.06.2025</div><a href="/main/m/54/367/12636"> Canada</a><div style="font-size:8px; padding-left: 10px; margin:-5px 0 -2px;">15.06.2025</div><a href="/main/m/54/367/12637"> Austria</a><div style="font-size:8px; padding-left: 10px; margin:-5px 0 -2px;">29.06.2025</div><a href="/main/m/54/367/12638"> Great Britain</a><div style="font-size:8px; padding-left: 10px; margin:-5px 0 -2px;">06.07.2025</div><a href="/main/m/54/367/12639"> Belgium</a><div style="font-size:8px; padding-left: 10px; margin:-5px 0 -2px;">27.07.2025</div><a href="/main/m/54/367/12640"> Hungary</a><div style="font-size:8px; padding-left: 10px; margin:-5px 0 -2px;">03.08.2025</div><a href="/main/m/54/367/12641"> Netherlands</a><div style="font-size:8px; padding-left: 10px; margin:-5px 0 -2px;">31.08.2025</div><a href="/main/m/54/367/12642"> Italy</a><div style="font-size:8px; padding-left: 10px; margin:-5px 0 -2px;">07.09.2025</div><a href="/main/m/54/367/12643"> Azerbaijan</a><div style="font-size:8px; padding-left: 10px; margin:-5px 0 -2px;">21.09.2025</div><a href="/main/m/54/367/12644"> Singapore</a><div style="font-size:8px; padding-left: 10px; margin:-5px 0 -2px;">05.10.2025</div><a href="/main/m/54/367/12645"> USA</a><div style="font-size:8px; padding-left: 10px; margin:-5px 0 -2px;">19.10.2025</div><b> Mexico</b> <div style="font-size:8px; padding-left: 10px; margin:-5px 0 -2px;">26.10.2025</div><a href="/main/m/54/367/12647"> Brazil</a><div style="font-size:8px; padding-left: 10px; margin:-5px 0 -2px;">09.11.2025</div><a href="/main/m/54/367/12648"> Las Vegas</a><div style="font-size:8px; padding-left: 10px; margin:-5px 0 -2px;">22.11.2025</div><a href="/main/m/54/367/12649"> Qatar</a><div style="font-size:8px; padding-left: 10px; margin:-5px 0 -2px;">30.11.2025</div><a href="/main/m/54/367/12650"> Abu Dhabi</a><div style="font-size:8px; padding-left: 10px; margin:-5px 0 -2px;">07.12.2025</div><a href="/main/m/54/367/12847"> Abu Dhabi</a><div style="font-size:8px; padding-left: 10px; margin:-5px 0 -2px;">09.12.2025</div></td><td id="td_menu_holder"><!-- vertical menu --></td><td><!-- layout --><h2>20. Mexico / Gran Premio de la Ciudad de Mxico / Mexico City</h2><div id="session_list">  | <a  href="/main/m/54/367/12646/-1">ENTRY LIST</a> | <a  href="/main/m/54/367/12646/59687">P1</a> | <a  href="/main/m/54/367/12646/59688">P2</a> | <a  href="/main/m/54/367/12646/59689">P3</a> | <a  href="/main/m/54/367/12646/59690">Q1</a> | <a  href="/main/m/54/367/12646/59691">Q2</a> | <a  href="/main/m/54/367/12646/59692">Q3</a> | <a  href="/main/m/54/367/12646/59693">CQ</a> | <a  href="/main/m/54/367/12646/59694">GRID</a> | <b >RACE</b> | <a href="/main/m/54/367/12646/59695/2">TYRE HISTORY</a> | <a  href="/main/m/54/367/12646/59696">FASTEST LAPS</a> | <a  href="/main/m/54/367/12646/59697">PIT STOPS</a> | <a  href="/main/m/54/367/12646/59698">SPEEDS</a></div> <br>  <h2>RACE</h2>&nbsp; <a href="/main/m/54/367/12646/59695/3">Data player</a>  &nbsp; <a href="/main/m/54/367/12646/59695/4">LIVE</a>  &nbsp; <a href="/main/m/54/367/12646/59695/5">LIVE 2</a>  &nbsp; <a href="/main/m/54/367/12646/59695/6">LV_5</a>  &nbsp; <a href="/main/m/54/367/12646/59695/7">DP_5</a> &nbsp;<a href="?v=4">Laps times</a><br><table><tr valign="top"><td><table class="results tab_59695" ><tr valign="top"><th align="right">cla</th><th align="left"></th><th align="right">#</th><th align="left">driver</th><th align="left">chassis</th><th align="left">engine</th><th align="right">laps</th><th align="right">time</th><th align="right">gap</th><th align="right">int</th><th align="right">km/h</th><th align="right">pits</th><th align="left">retirement</th><th align="right">pts</th><th align="right"style="background-color: #fcc">pen</th><th align="right"style="background-color: #fcc">reprim</th><th align="left">tyres change</th><th align="left">b_tyres</th></tr> 
Parsing GP 12647
Skipping incomplete row: <table><tr valign="top"><td><!-- layout --><form action="/main/m/" method="GET" class="sid_find_form"><input id="in_sid" type="text" name="sid" value="59795" title="sid"><button type="submit" title="find by sid">Go</button><button id="b_copy_sid_url" title="copy sid url">Url</button></form><script type="text/javascript">$(function(){$("#b_copy_sid_url").click(function(){var input = $("#in_sid");var sid = input.val();var url = "https://results.motorsport.com//main/m/?sid="+sid;input.val(url);input.select();document.execCommand("copy");input.val(sid);alert('session url copied to clipboard');return false;});});</script><br><select name="series" onchange="window.location.href = '/main/m/'+value"><option value="206" >ASIAN LE MANS</option><option value="30" >BTCC</option><option value="45" >DTM</option><option value="104" >EUROPEAN LE MANS</option><option value="6216" >F1 Academy</option><option value="54"  selected>FORMULA 1</option><option value="208" >FORMULA E</option><option value="73" >GP2</option><option value="74" >GP3</option><option value="211" >GT-MASTERS</option><option value="207" >IMSA</option><option value="87" >INDY LIGHTS</option><option value="86" >INDYCAR</option><option value="212" >MOTO2</option><option value="213" >MOTO3</option><option value="112" >MOTOGP</option><option value="1772" >MX2</option><option value="1771" >MXGP</option><option value="119" >NASCAR SPRINT CUP</option><option value="126" >NASCAR TRUCK</option><option value="124" >NASCAR XFINITY</option><option value="852" >STOCK CAR BRAZIL</option><option value="1101" >SUPER FORMULA</option><option value="172" >SUPER GT</option><option value="6098" >TCR AUSTRALIA</option><option value="18" >V8 SUPERCARS</option><option value="205" >WEC</option><option value="160" >WORLD CHALLENGE</option><option value="210" >WORLD RALLYCROSS</option><option value="194" >WORLD SUPERBIKE</option><option value="193" >WRC</option><option value="5551" >WTCR</option></select><br><br><select name="championship" onchange="window.location.href = '/main/m/54/'+value"><option value="367"  selected> 2025</option><option value="336" > 2024</option><option value="307" > 2023</option><option value="280" > 2022</option><option value="242" > 2021</option><option value="213" > 2020</option><option value="189" > 2019</option><option value="165" > 2018</option><option value="127" > 2017</option><option value="76" > 2016</option><option value="66" > 2015</option><option value="65" > 2014</option><option value="64" > 2013</option><option value="63" > 2012</option><option value="62" > 2011</option><option value="61" > 2010</option><option value="60" > 2009</option><option value="59" > 2008</option><option value="58" > 2007</option><option value="57" > 2006</option><option value="56" > 2005</option><option value="55" > 2004</option><option value="54" > 2003</option><option value="53" > 2002</option><option value="52" > 2001</option><option value="51" > 2000</option><option value="50" > 1999</option><option value="49" > 1998</option><option value="48" > 1997</option><option value="47" > 1996</option><option value="46" > 1995</option><option value="45" > 1994</option><option value="44" > 1993</option><option value="43" > 1992</option><option value="42" > 1991</option><option value="41" > 1990</option><option value="40" > 1989</option><option value="39" > 1988</option><option value="38" > 1987</option><option value="37" > 1986</option><option value="36" > 1985</option><option value="35" > 1984</option><option value="34" > 1983</option><option value="33" > 1982</option><option value="32" > 1981</option><option value="31" > 1980</option><option value="30" > 1979</option><option value="29" > 1978</option><option value="28" > 1977</option><option value="27" > 1976</option><option value="26" > 1975</option><option value="25" > 1974</option><option value="24" > 1973</option><option value="23" > 1972</option><option value="22" > 1971</option><option value="21" > 1970</option><option value="20" > 1969</option><option value="19" > 1968</option><option value="18" > 1967</option><option value="17" > 1966</option><option value="16" > 1965</option><option value="15" > 1964</option><option value="14" > 1963</option><option value="13" > 1962</option><option value="12" > 1961</option><option value="11" > 1960</option><option value="10" > 1959</option><option value="9" > 1958</option><option value="8" > 1957</option><option value="7" > 1956</option><option value="6" > 1955</option><option value="5" > 1954</option><option value="4" > 1953</option><option value="3" > 1952</option><option value="2" > 1951</option><option value="1" > 1950</option></select>    <br><br><a href="/main/m/54/367/-2">Drivers Championship</a><br><a href="/main/m/54/367/-3">Constructors Championship</a><br><a href="/main/m/54/367/-10">Drivers penalty points</a><br><a href="/main/m/54/367/-20">Drivers reprimands</a><br><br>    <a href="/main/m/54/367/12651"> Bahrain</a><div style="font-size:8px; padding-left: 10px; margin:-5px 0 -2px;">28.02.2025</div><a href="/main/m/54/367/12627"> Australia</a><div style="font-size:8px; padding-left: 10px; margin:-5px 0 -2px;">16.03.2025</div><a href="/main/m/54/367/12628"> China</a><div style="font-size:8px; padding-left: 10px; margin:-5px 0 -2px;">23.03.2025</div><a href="/main/m/54/367/12629"> Japan</a><div style="font-size:8px; padding-left: 10px; margin:-5px 0 -2px;">06.04.2025</div><a href="/main/m/54/367/12630"> Bahrain</a><div style="font-size:8px; padding-left: 10px; margin:-5px 0 -2px;">13.04.2025</div><a href="/main/m/54/367/12631"> Saudi Arabia</a><div style="font-size:8px; padding-left: 10px; margin:-5px 0 -2px;">20.04.2025</div><a href="/main/m/54/367/12632"> Miami</a><div style="font-size:8px; padding-left: 10px; margin:-5px 0 -2px;">04.05.2025</div><a href="/main/m/54/367/12633"> Emilia Romagna</a><div style="font-size:8px; padding-left: 10px; margin:-5px 0 -2px;">18.05.2025</div><a href="/main/m/54/367/12634"> Monaco</a><div style="font-size:8px; padding-left: 10px; margin:-5px 0 -2px;">25.05.2025</div><a href="/main/m/54/367/12635"> Spain</a><div style="font-size:8px; padding-left: 10px; margin:-5px 0 -2px;">01.06.2025</div><a href="/main/m/54/367/12636"> Canada</a><div style="font-size:8px; padding-left: 10px; margin:-5px 0 -2px;">15.06.2025</div><a href="/main/m/54/367/12637"> Austria</a><div style="font-size:8px; padding-left: 10px; margin:-5px 0 -2px;">29.06.2025</div><a href="/main/m/54/367/12638"> Great Britain</a><div style="font-size:8px; padding-left: 10px; margin:-5px 0 -2px;">06.07.2025</div><a href="/main/m/54/367/12639"> Belgium</a><div style="font-size:8px; padding-left: 10px; margin:-5px 0 -2px;">27.07.2025</div><a href="/main/m/54/367/12640"> Hungary</a><div style="font-size:8px; padding-left: 10px; margin:-5px 0 -2px;">03.08.2025</div><a href="/main/m/54/367/12641"> Netherlands</a><div style="font-size:8px; padding-left: 10px; margin:-5px 0 -2px;">31.08.2025</div><a href="/main/m/54/367/12642"> Italy</a><div style="font-size:8px; padding-left: 10px; margin:-5px 0 -2px;">07.09.2025</div><a href="/main/m/54/367/12643"> Azerbaijan</a><div style="font-size:8px; padding-left: 10px; margin:-5px 0 -2px;">21.09.2025</div><a href="/main/m/54/367/12644"> Singapore</a><div style="font-size:8px; padding-left: 10px; margin:-5px 0 -2px;">05.10.2025</div><a href="/main/m/54/367/12645"> USA</a><div style="font-size:8px; padding-left: 10px; margin:-5px 0 -2px;">19.10.2025</div><a href="/main/m/54/367/12646"> Mexico</a><div style="font-size:8px; padding-left: 10px; margin:-5px 0 -2px;">26.10.2025</div><b> Brazil</b> <div style="font-size:8px; padding-left: 10px; margin:-5px 0 -2px;">09.11.2025</div><a href="/main/m/54/367/12648"> Las Vegas</a><div style="font-size:8px; padding-left: 10px; margin:-5px 0 -2px;">22.11.2025</div><a href="/main/m/54/367/12649"> Qatar</a><div style="font-size:8px; padding-left: 10px; margin:-5px 0 -2px;">30.11.2025</div><a href="/main/m/54/367/12650"> Abu Dhabi</a><div style="font-size:8px; padding-left: 10px; margin:-5px 0 -2px;">07.12.2025</div><a href="/main/m/54/367/12847"> Abu Dhabi</a><div style="font-size:8px; padding-left: 10px; margin:-5px 0 -2px;">09.12.2025</div></td><td id="td_menu_holder"><!-- vertical menu --></td><td><!-- layout --><h2>21. Brazil / Rolex Grande Prmio de So Paulo / Interlagos</h2><div id="session_list">  | <a  href="/main/m/54/367/12647/-1">ENTRY LIST</a> | <a  href="/main/m/54/367/12647/59782">P1</a> | <a  href="/main/m/54/367/12647/59783">SQ1</a> | <a  href="/main/m/54/367/12647/59784">SQ2</a> | <a  href="/main/m/54/367/12647/59785">SQ3</a> | <a  href="/main/m/54/367/12647/59786">CSQ</a> | <a  href="/main/m/54/367/12647/59787">SPR GRID</a> | <a  href="/main/m/54/367/12647/59788">SPR</a> | <a  href="/main/m/54/367/12647/59789">SPR FL</a> | <a  href="/main/m/54/367/12647/59790">Q1</a> | <a  href="/main/m/54/367/12647/59791">Q2</a> | <a  href="/main/m/54/367/12647/59792">Q3</a> | <a  href="/main/m/54/367/12647/59793">CQ</a> | <a  href="/main/m/54/367/12647/59794">GRID</a> | <b >RACE</b> | <a href="/main/m/54/367/12647/59795/2">TYRE HISTORY</a> | <a  href="/main/m/54/367/12647/59796">FASTEST LAPS</a> | <a  href="/main/m/54/367/12647/59797">PIT STOPS</a> | <a  href="/main/m/54/367/12647/59798">SPEEDS</a></div> <br>  <h2>RACE</h2>&nbsp; <a href="/main/m/54/367/12647/59795/3">Data player</a>  &nbsp; <a href="/main/m/54/367/12647/59795/4">LIVE</a>  &nbsp; <a href="/main/m/54/367/12647/59795/5">LIVE 2</a>  &nbsp; <a href="/main/m/54/367/12647/59795/6">LV_5</a>  &nbsp; <a href="/main/m/54/367/12647/59795/7">DP_5</a> &nbsp;<a href="?v=4">Laps times</a><br><table><tr valign="top"><td><table class="results tab_59795" ><tr valign="top"><th align="right">cla</th><th align="left"></th><th align="right">#</th><th align="left">driver</th><th align="left">chassis</th><th align="left">engine</th><th align="right">laps</th><th align="right">time</th><th align="right">gap</th><th align="right">int</th><th align="right">km/h</th><th align="right">pits</th><th align="left">retirement</th><th align="right">pts</th><th align="right">pen</th><th align="right"style="background-color: #fcc">reprim</th><th align="left">tyres change</th><th align="left">b_tyres</th></tr> 
Parsing GP 12648
Skipping incomplete row: <table><tr valign="top"><td><!-- layout --><form action="/main/m/" method="GET" class="sid_find_form"><input id="in_sid" type="text" name="sid" value="59938" title="sid"><button type="submit" title="find by sid">Go</button><button id="b_copy_sid_url" title="copy sid url">Url</button></form><script type="text/javascript">$(function(){$("#b_copy_sid_url").click(function(){var input = $("#in_sid");var sid = input.val();var url = "https://results.motorsport.com//main/m/?sid="+sid;input.val(url);input.select();document.execCommand("copy");input.val(sid);alert('session url copied to clipboard');return false;});});</script><br><select name="series" onchange="window.location.href = '/main/m/'+value"><option value="206" >ASIAN LE MANS</option><option value="30" >BTCC</option><option value="45" >DTM</option><option value="104" >EUROPEAN LE MANS</option><option value="6216" >F1 Academy</option><option value="54"  selected>FORMULA 1</option><option value="208" >FORMULA E</option><option value="73" >GP2</option><option value="74" >GP3</option><option value="211" >GT-MASTERS</option><option value="207" >IMSA</option><option value="87" >INDY LIGHTS</option><option value="86" >INDYCAR</option><option value="212" >MOTO2</option><option value="213" >MOTO3</option><option value="112" >MOTOGP</option><option value="1772" >MX2</option><option value="1771" >MXGP</option><option value="119" >NASCAR SPRINT CUP</option><option value="126" >NASCAR TRUCK</option><option value="124" >NASCAR XFINITY</option><option value="852" >STOCK CAR BRAZIL</option><option value="1101" >SUPER FORMULA</option><option value="172" >SUPER GT</option><option value="6098" >TCR AUSTRALIA</option><option value="18" >V8 SUPERCARS</option><option value="205" >WEC</option><option value="160" >WORLD CHALLENGE</option><option value="210" >WORLD RALLYCROSS</option><option value="194" >WORLD SUPERBIKE</option><option value="193" >WRC</option><option value="5551" >WTCR</option></select><br><br><select name="championship" onchange="window.location.href = '/main/m/54/'+value"><option value="367"  selected> 2025</option><option value="336" > 2024</option><option value="307" > 2023</option><option value="280" > 2022</option><option value="242" > 2021</option><option value="213" > 2020</option><option value="189" > 2019</option><option value="165" > 2018</option><option value="127" > 2017</option><option value="76" > 2016</option><option value="66" > 2015</option><option value="65" > 2014</option><option value="64" > 2013</option><option value="63" > 2012</option><option value="62" > 2011</option><option value="61" > 2010</option><option value="60" > 2009</option><option value="59" > 2008</option><option value="58" > 2007</option><option value="57" > 2006</option><option value="56" > 2005</option><option value="55" > 2004</option><option value="54" > 2003</option><option value="53" > 2002</option><option value="52" > 2001</option><option value="51" > 2000</option><option value="50" > 1999</option><option value="49" > 1998</option><option value="48" > 1997</option><option value="47" > 1996</option><option value="46" > 1995</option><option value="45" > 1994</option><option value="44" > 1993</option><option value="43" > 1992</option><option value="42" > 1991</option><option value="41" > 1990</option><option value="40" > 1989</option><option value="39" > 1988</option><option value="38" > 1987</option><option value="37" > 1986</option><option value="36" > 1985</option><option value="35" > 1984</option><option value="34" > 1983</option><option value="33" > 1982</option><option value="32" > 1981</option><option value="31" > 1980</option><option value="30" > 1979</option><option value="29" > 1978</option><option value="28" > 1977</option><option value="27" > 1976</option><option value="26" > 1975</option><option value="25" > 1974</option><option value="24" > 1973</option><option value="23" > 1972</option><option value="22" > 1971</option><option value="21" > 1970</option><option value="20" > 1969</option><option value="19" > 1968</option><option value="18" > 1967</option><option value="17" > 1966</option><option value="16" > 1965</option><option value="15" > 1964</option><option value="14" > 1963</option><option value="13" > 1962</option><option value="12" > 1961</option><option value="11" > 1960</option><option value="10" > 1959</option><option value="9" > 1958</option><option value="8" > 1957</option><option value="7" > 1956</option><option value="6" > 1955</option><option value="5" > 1954</option><option value="4" > 1953</option><option value="3" > 1952</option><option value="2" > 1951</option><option value="1" > 1950</option></select>    <br><br><a href="/main/m/54/367/-2">Drivers Championship</a><br><a href="/main/m/54/367/-3">Constructors Championship</a><br><a href="/main/m/54/367/-10">Drivers penalty points</a><br><a href="/main/m/54/367/-20">Drivers reprimands</a><br><br>    <a href="/main/m/54/367/12651"> Bahrain</a><div style="font-size:8px; padding-left: 10px; margin:-5px 0 -2px;">28.02.2025</div><a href="/main/m/54/367/12627"> Australia</a><div style="font-size:8px; padding-left: 10px; margin:-5px 0 -2px;">16.03.2025</div><a href="/main/m/54/367/12628"> China</a><div style="font-size:8px; padding-left: 10px; margin:-5px 0 -2px;">23.03.2025</div><a href="/main/m/54/367/12629"> Japan</a><div style="font-size:8px; padding-left: 10px; margin:-5px 0 -2px;">06.04.2025</div><a href="/main/m/54/367/12630"> Bahrain</a><div style="font-size:8px; padding-left: 10px; margin:-5px 0 -2px;">13.04.2025</div><a href="/main/m/54/367/12631"> Saudi Arabia</a><div style="font-size:8px; padding-left: 10px; margin:-5px 0 -2px;">20.04.2025</div><a href="/main/m/54/367/12632"> Miami</a><div style="font-size:8px; padding-left: 10px; margin:-5px 0 -2px;">04.05.2025</div><a href="/main/m/54/367/12633"> Emilia Romagna</a><div style="font-size:8px; padding-left: 10px; margin:-5px 0 -2px;">18.05.2025</div><a href="/main/m/54/367/12634"> Monaco</a><div style="font-size:8px; padding-left: 10px; margin:-5px 0 -2px;">25.05.2025</div><a href="/main/m/54/367/12635"> Spain</a><div style="font-size:8px; padding-left: 10px; margin:-5px 0 -2px;">01.06.2025</div><a href="/main/m/54/367/12636"> Canada</a><div style="font-size:8px; padding-left: 10px; margin:-5px 0 -2px;">15.06.2025</div><a href="/main/m/54/367/12637"> Austria</a><div style="font-size:8px; padding-left: 10px; margin:-5px 0 -2px;">29.06.2025</div><a href="/main/m/54/367/12638"> Great Britain</a><div style="font-size:8px; padding-left: 10px; margin:-5px 0 -2px;">06.07.2025</div><a href="/main/m/54/367/12639"> Belgium</a><div style="font-size:8px; padding-left: 10px; margin:-5px 0 -2px;">27.07.2025</div><a href="/main/m/54/367/12640"> Hungary</a><div style="font-size:8px; padding-left: 10px; margin:-5px 0 -2px;">03.08.2025</div><a href="/main/m/54/367/12641"> Netherlands</a><div style="font-size:8px; padding-left: 10px; margin:-5px 0 -2px;">31.08.2025</div><a href="/main/m/54/367/12642"> Italy</a><div style="font-size:8px; padding-left: 10px; margin:-5px 0 -2px;">07.09.2025</div><a href="/main/m/54/367/12643"> Azerbaijan</a><div style="font-size:8px; padding-left: 10px; margin:-5px 0 -2px;">21.09.2025</div><a href="/main/m/54/367/12644"> Singapore</a><div style="font-size:8px; padding-left: 10px; margin:-5px 0 -2px;">05.10.2025</div><a href="/main/m/54/367/12645"> USA</a><div style="font-size:8px; padding-left: 10px; margin:-5px 0 -2px;">19.10.2025</div><a href="/main/m/54/367/12646"> Mexico</a><div style="font-size:8px; padding-left: 10px; margin:-5px 0 -2px;">26.10.2025</div><a href="/main/m/54/367/12647"> Brazil</a><div style="font-size:8px; padding-left: 10px; margin:-5px 0 -2px;">09.11.2025</div><b> Las Vegas</b> <div style="font-size:8px; padding-left: 10px; margin:-5px 0 -2px;">22.11.2025</div><a href="/main/m/54/367/12649"> Qatar</a><div style="font-size:8px; padding-left: 10px; margin:-5px 0 -2px;">30.11.2025</div><a href="/main/m/54/367/12650"> Abu Dhabi</a><div style="font-size:8px; padding-left: 10px; margin:-5px 0 -2px;">07.12.2025</div><a href="/main/m/54/367/12847"> Abu Dhabi</a><div style="font-size:8px; padding-left: 10px; margin:-5px 0 -2px;">09.12.2025</div></td><td id="td_menu_holder"><!-- vertical menu --></td><td><!-- layout --><h2>22. Las Vegas / Heineken Silver Las Vegas Grand Prix / Las Vegas</h2><div id="session_list">  | <a  href="/main/m/54/367/12648/-1">ENTRY LIST</a> | <a  href="/main/m/54/367/12648/59930">P1</a> | <a  href="/main/m/54/367/12648/59931">P2</a> | <a  href="/main/m/54/367/12648/59932">P3</a> | <a  href="/main/m/54/367/12648/59933">Q1</a> | <a  href="/main/m/54/367/12648/59934">Q2</a> | <a  href="/main/m/54/367/12648/59935">Q3</a> | <a  href="/main/m/54/367/12648/59936">CQ</a> | <a  href="/main/m/54/367/12648/59937">GRID</a> | <b >RACE</b> | <a href="/main/m/54/367/12648/59938/2">TYRE HISTORY</a> | <a  href="/main/m/54/367/12648/59939">FASTEST LAPS</a> | <a  href="/main/m/54/367/12648/59940">PIT STOPS</a> | <a  href="/main/m/54/367/12648/59941">SPEEDS</a></div> <br>  <h2>RACE</h2>&nbsp; <a href="/main/m/54/367/12648/59938/3">Data player</a>  &nbsp; <a href="/main/m/54/367/12648/59938/4">LIVE</a>  &nbsp; <a href="/main/m/54/367/12648/59938/5">LIVE 2</a>  &nbsp; <a href="/main/m/54/367/12648/59938/6">LV_5</a>  &nbsp; <a href="/main/m/54/367/12648/59938/7">DP_5</a> &nbsp;<a href="?v=4">Laps times</a><br><table><tr valign="top"><td><table class="results tab_59938" ><tr valign="top"><th align="right">cla</th><th align="left"></th><th align="right">#</th><th align="left">driver</th><th align="left">chassis</th><th align="left">engine</th><th align="right">laps</th><th align="right">time</th><th align="right">gap</th><th align="right">int</th><th align="right">km/h</th><th align="right">pits</th><th align="left">retirement</th><th align="right">pts</th><th align="right">pen</th><th align="right"style="background-color: #fcc">reprim</th><th align="left">tyres change</th><th align="left">b_tyres</th></tr> 
Parsing GP 12649
Skipping incomplete row: <table><tr valign="top"><td><!-- layout --><form action="/main/m/" method="GET" class="sid_find_form"><input id="in_sid" type="text" name="sid" value="60026" title="sid"><button type="submit" title="find by sid">Go</button><button id="b_copy_sid_url" title="copy sid url">Url</button></form><script type="text/javascript">$(function(){$("#b_copy_sid_url").click(function(){var input = $("#in_sid");var sid = input.val();var url = "https://results.motorsport.com//main/m/?sid="+sid;input.val(url);input.select();document.execCommand("copy");input.val(sid);alert('session url copied to clipboard');return false;});});</script><br><select name="series" onchange="window.location.href = '/main/m/'+value"><option value="206" >ASIAN LE MANS</option><option value="30" >BTCC</option><option value="45" >DTM</option><option value="104" >EUROPEAN LE MANS</option><option value="6216" >F1 Academy</option><option value="54"  selected>FORMULA 1</option><option value="208" >FORMULA E</option><option value="73" >GP2</option><option value="74" >GP3</option><option value="211" >GT-MASTERS</option><option value="207" >IMSA</option><option value="87" >INDY LIGHTS</option><option value="86" >INDYCAR</option><option value="212" >MOTO2</option><option value="213" >MOTO3</option><option value="112" >MOTOGP</option><option value="1772" >MX2</option><option value="1771" >MXGP</option><option value="119" >NASCAR SPRINT CUP</option><option value="126" >NASCAR TRUCK</option><option value="124" >NASCAR XFINITY</option><option value="852" >STOCK CAR BRAZIL</option><option value="1101" >SUPER FORMULA</option><option value="172" >SUPER GT</option><option value="6098" >TCR AUSTRALIA</option><option value="18" >V8 SUPERCARS</option><option value="205" >WEC</option><option value="160" >WORLD CHALLENGE</option><option value="210" >WORLD RALLYCROSS</option><option value="194" >WORLD SUPERBIKE</option><option value="193" >WRC</option><option value="5551" >WTCR</option></select><br><br><select name="championship" onchange="window.location.href = '/main/m/54/'+value"><option value="367"  selected> 2025</option><option value="336" > 2024</option><option value="307" > 2023</option><option value="280" > 2022</option><option value="242" > 2021</option><option value="213" > 2020</option><option value="189" > 2019</option><option value="165" > 2018</option><option value="127" > 2017</option><option value="76" > 2016</option><option value="66" > 2015</option><option value="65" > 2014</option><option value="64" > 2013</option><option value="63" > 2012</option><option value="62" > 2011</option><option value="61" > 2010</option><option value="60" > 2009</option><option value="59" > 2008</option><option value="58" > 2007</option><option value="57" > 2006</option><option value="56" > 2005</option><option value="55" > 2004</option><option value="54" > 2003</option><option value="53" > 2002</option><option value="52" > 2001</option><option value="51" > 2000</option><option value="50" > 1999</option><option value="49" > 1998</option><option value="48" > 1997</option><option value="47" > 1996</option><option value="46" > 1995</option><option value="45" > 1994</option><option value="44" > 1993</option><option value="43" > 1992</option><option value="42" > 1991</option><option value="41" > 1990</option><option value="40" > 1989</option><option value="39" > 1988</option><option value="38" > 1987</option><option value="37" > 1986</option><option value="36" > 1985</option><option value="35" > 1984</option><option value="34" > 1983</option><option value="33" > 1982</option><option value="32" > 1981</option><option value="31" > 1980</option><option value="30" > 1979</option><option value="29" > 1978</option><option value="28" > 1977</option><option value="27" > 1976</option><option value="26" > 1975</option><option value="25" > 1974</option><option value="24" > 1973</option><option value="23" > 1972</option><option value="22" > 1971</option><option value="21" > 1970</option><option value="20" > 1969</option><option value="19" > 1968</option><option value="18" > 1967</option><option value="17" > 1966</option><option value="16" > 1965</option><option value="15" > 1964</option><option value="14" > 1963</option><option value="13" > 1962</option><option value="12" > 1961</option><option value="11" > 1960</option><option value="10" > 1959</option><option value="9" > 1958</option><option value="8" > 1957</option><option value="7" > 1956</option><option value="6" > 1955</option><option value="5" > 1954</option><option value="4" > 1953</option><option value="3" > 1952</option><option value="2" > 1951</option><option value="1" > 1950</option></select>    <br><br><a href="/main/m/54/367/-2">Drivers Championship</a><br><a href="/main/m/54/367/-3">Constructors Championship</a><br><a href="/main/m/54/367/-10">Drivers penalty points</a><br><a href="/main/m/54/367/-20">Drivers reprimands</a><br><br>    <a href="/main/m/54/367/12651"> Bahrain</a><div style="font-size:8px; padding-left: 10px; margin:-5px 0 -2px;">28.02.2025</div><a href="/main/m/54/367/12627"> Australia</a><div style="font-size:8px; padding-left: 10px; margin:-5px 0 -2px;">16.03.2025</div><a href="/main/m/54/367/12628"> China</a><div style="font-size:8px; padding-left: 10px; margin:-5px 0 -2px;">23.03.2025</div><a href="/main/m/54/367/12629"> Japan</a><div style="font-size:8px; padding-left: 10px; margin:-5px 0 -2px;">06.04.2025</div><a href="/main/m/54/367/12630"> Bahrain</a><div style="font-size:8px; padding-left: 10px; margin:-5px 0 -2px;">13.04.2025</div><a href="/main/m/54/367/12631"> Saudi Arabia</a><div style="font-size:8px; padding-left: 10px; margin:-5px 0 -2px;">20.04.2025</div><a href="/main/m/54/367/12632"> Miami</a><div style="font-size:8px; padding-left: 10px; margin:-5px 0 -2px;">04.05.2025</div><a href="/main/m/54/367/12633"> Emilia Romagna</a><div style="font-size:8px; padding-left: 10px; margin:-5px 0 -2px;">18.05.2025</div><a href="/main/m/54/367/12634"> Monaco</a><div style="font-size:8px; padding-left: 10px; margin:-5px 0 -2px;">25.05.2025</div><a href="/main/m/54/367/12635"> Spain</a><div style="font-size:8px; padding-left: 10px; margin:-5px 0 -2px;">01.06.2025</div><a href="/main/m/54/367/12636"> Canada</a><div style="font-size:8px; padding-left: 10px; margin:-5px 0 -2px;">15.06.2025</div><a href="/main/m/54/367/12637"> Austria</a><div style="font-size:8px; padding-left: 10px; margin:-5px 0 -2px;">29.06.2025</div><a href="/main/m/54/367/12638"> Great Britain</a><div style="font-size:8px; padding-left: 10px; margin:-5px 0 -2px;">06.07.2025</div><a href="/main/m/54/367/12639"> Belgium</a><div style="font-size:8px; padding-left: 10px; margin:-5px 0 -2px;">27.07.2025</div><a href="/main/m/54/367/12640"> Hungary</a><div style="font-size:8px; padding-left: 10px; margin:-5px 0 -2px;">03.08.2025</div><a href="/main/m/54/367/12641"> Netherlands</a><div style="font-size:8px; padding-left: 10px; margin:-5px 0 -2px;">31.08.2025</div><a href="/main/m/54/367/12642"> Italy</a><div style="font-size:8px; padding-left: 10px; margin:-5px 0 -2px;">07.09.2025</div><a href="/main/m/54/367/12643"> Azerbaijan</a><div style="font-size:8px; padding-left: 10px; margin:-5px 0 -2px;">21.09.2025</div><a href="/main/m/54/367/12644"> Singapore</a><div style="font-size:8px; padding-left: 10px; margin:-5px 0 -2px;">05.10.2025</div><a href="/main/m/54/367/12645"> USA</a><div style="font-size:8px; padding-left: 10px; margin:-5px 0 -2px;">19.10.2025</div><a href="/main/m/54/367/12646"> Mexico</a><div style="font-size:8px; padding-left: 10px; margin:-5px 0 -2px;">26.10.2025</div><a href="/main/m/54/367/12647"> Brazil</a><div style="font-size:8px; padding-left: 10px; margin:-5px 0 -2px;">09.11.2025</div><a href="/main/m/54/367/12648"> Las Vegas</a><div style="font-size:8px; padding-left: 10px; margin:-5px 0 -2px;">22.11.2025</div><b> Qatar</b> <div style="font-size:8px; padding-left: 10px; margin:-5px 0 -2px;">30.11.2025</div><a href="/main/m/54/367/12650"> Abu Dhabi</a><div style="font-size:8px; padding-left: 10px; margin:-5px 0 -2px;">07.12.2025</div><a href="/main/m/54/367/12847"> Abu Dhabi</a><div style="font-size:8px; padding-left: 10px; margin:-5px 0 -2px;">09.12.2025</div></td><td id="td_menu_holder"><!-- vertical menu --></td><td><!-- layout --><h2>23. Qatar / Qatar Grand Prix / Losail International Circuit</h2><div id="session_list">  | <a  href="/main/m/54/367/12649/-1">ENTRY LIST</a> | <a  href="/main/m/54/367/12649/60013">P1</a> | <a  href="/main/m/54/367/12649/60014">SQ1</a> | <a  href="/main/m/54/367/12649/60015">SQ2</a> | <a  href="/main/m/54/367/12649/60016">SQ3</a> | <a  href="/main/m/54/367/12649/60017">CSQ</a> | <a  href="/main/m/54/367/12649/60018">SPR GRID</a> | <a  href="/main/m/54/367/12649/60019">SPR</a> | <a  href="/main/m/54/367/12649/60020">SPR FL</a> | <a  href="/main/m/54/367/12649/60021">Q1</a> | <a  href="/main/m/54/367/12649/60022">Q2</a> | <a  href="/main/m/54/367/12649/60023">Q3</a> | <a  href="/main/m/54/367/12649/60024">CQ</a> | <a  href="/main/m/54/367/12649/60025">GRID</a> | <b >RACE</b> | <a href="/main/m/54/367/12649/60026/2">TYRE HISTORY</a> | <a  href="/main/m/54/367/12649/60027">FASTEST LAPS</a> | <a  href="/main/m/54/367/12649/60028">PIT STOPS</a> | <a  href="/main/m/54/367/12649/60029">SPEEDS</a></div> <br>  <h2>RACE</h2>&nbsp; <a href="/main/m/54/367/12649/60026/3">Data player</a>  &nbsp; <a href="/main/m/54/367/12649/60026/4">LIVE</a>  &nbsp; <a href="/main/m/54/367/12649/60026/5">LIVE 2</a>  &nbsp; <a href="/main/m/54/367/12649/60026/6">LV_5</a>  &nbsp; <a href="/main/m/54/367/12649/60026/7">DP_5</a> &nbsp;<a href="?v=4">Laps times</a><br><table><tr valign="top"><td><table class="results tab_60026" ><tr valign="top"><th align="right">cla</th><th align="left"></th><th align="right">#</th><th align="left">driver</th><th align="left">chassis</th><th align="left">engine</th><th align="right">laps</th><th align="right">time</th><th align="right">gap</th><th align="right">int</th><th align="right">km/h</th><th align="right">pits</th><th align="left">retirement</th><th align="right">pts</th><th align="right"style="background-color: #fcc">pen</th><th align="right"style="background-color: #fcc">reprim</th><th align="left">tyres change</th><th align="left">b_tyres</th></tr> 
Parsing GP 12650
Skipping incomplete row: <table><tr valign="top"><td><!-- layout --><form action="/main/m/" method="GET" class="sid_find_form"><input id="in_sid" type="text" name="sid" value="60038" title="sid"><button type="submit" title="find by sid">Go</button><button id="b_copy_sid_url" title="copy sid url">Url</button></form><script type="text/javascript">$(function(){$("#b_copy_sid_url").click(function(){var input = $("#in_sid");var sid = input.val();var url = "https://results.motorsport.com//main/m/?sid="+sid;input.val(url);input.select();document.execCommand("copy");input.val(sid);alert('session url copied to clipboard');return false;});});</script><br><select name="series" onchange="window.location.href = '/main/m/'+value"><option value="206" >ASIAN LE MANS</option><option value="30" >BTCC</option><option value="45" >DTM</option><option value="104" >EUROPEAN LE MANS</option><option value="6216" >F1 Academy</option><option value="54"  selected>FORMULA 1</option><option value="208" >FORMULA E</option><option value="73" >GP2</option><option value="74" >GP3</option><option value="211" >GT-MASTERS</option><option value="207" >IMSA</option><option value="87" >INDY LIGHTS</option><option value="86" >INDYCAR</option><option value="212" >MOTO2</option><option value="213" >MOTO3</option><option value="112" >MOTOGP</option><option value="1772" >MX2</option><option value="1771" >MXGP</option><option value="119" >NASCAR SPRINT CUP</option><option value="126" >NASCAR TRUCK</option><option value="124" >NASCAR XFINITY</option><option value="852" >STOCK CAR BRAZIL</option><option value="1101" >SUPER FORMULA</option><option value="172" >SUPER GT</option><option value="6098" >TCR AUSTRALIA</option><option value="18" >V8 SUPERCARS</option><option value="205" >WEC</option><option value="160" >WORLD CHALLENGE</option><option value="210" >WORLD RALLYCROSS</option><option value="194" >WORLD SUPERBIKE</option><option value="193" >WRC</option><option value="5551" >WTCR</option></select><br><br><select name="championship" onchange="window.location.href = '/main/m/54/'+value"><option value="367"  selected> 2025</option><option value="336" > 2024</option><option value="307" > 2023</option><option value="280" > 2022</option><option value="242" > 2021</option><option value="213" > 2020</option><option value="189" > 2019</option><option value="165" > 2018</option><option value="127" > 2017</option><option value="76" > 2016</option><option value="66" > 2015</option><option value="65" > 2014</option><option value="64" > 2013</option><option value="63" > 2012</option><option value="62" > 2011</option><option value="61" > 2010</option><option value="60" > 2009</option><option value="59" > 2008</option><option value="58" > 2007</option><option value="57" > 2006</option><option value="56" > 2005</option><option value="55" > 2004</option><option value="54" > 2003</option><option value="53" > 2002</option><option value="52" > 2001</option><option value="51" > 2000</option><option value="50" > 1999</option><option value="49" > 1998</option><option value="48" > 1997</option><option value="47" > 1996</option><option value="46" > 1995</option><option value="45" > 1994</option><option value="44" > 1993</option><option value="43" > 1992</option><option value="42" > 1991</option><option value="41" > 1990</option><option value="40" > 1989</option><option value="39" > 1988</option><option value="38" > 1987</option><option value="37" > 1986</option><option value="36" > 1985</option><option value="35" > 1984</option><option value="34" > 1983</option><option value="33" > 1982</option><option value="32" > 1981</option><option value="31" > 1980</option><option value="30" > 1979</option><option value="29" > 1978</option><option value="28" > 1977</option><option value="27" > 1976</option><option value="26" > 1975</option><option value="25" > 1974</option><option value="24" > 1973</option><option value="23" > 1972</option><option value="22" > 1971</option><option value="21" > 1970</option><option value="20" > 1969</option><option value="19" > 1968</option><option value="18" > 1967</option><option value="17" > 1966</option><option value="16" > 1965</option><option value="15" > 1964</option><option value="14" > 1963</option><option value="13" > 1962</option><option value="12" > 1961</option><option value="11" > 1960</option><option value="10" > 1959</option><option value="9" > 1958</option><option value="8" > 1957</option><option value="7" > 1956</option><option value="6" > 1955</option><option value="5" > 1954</option><option value="4" > 1953</option><option value="3" > 1952</option><option value="2" > 1951</option><option value="1" > 1950</option></select>    <br><br><a href="/main/m/54/367/-2">Drivers Championship</a><br><a href="/main/m/54/367/-3">Constructors Championship</a><br><a href="/main/m/54/367/-10">Drivers penalty points</a><br><a href="/main/m/54/367/-20">Drivers reprimands</a><br><br>    <a href="/main/m/54/367/12651"> Bahrain</a><div style="font-size:8px; padding-left: 10px; margin:-5px 0 -2px;">28.02.2025</div><a href="/main/m/54/367/12627"> Australia</a><div style="font-size:8px; padding-left: 10px; margin:-5px 0 -2px;">16.03.2025</div><a href="/main/m/54/367/12628"> China</a><div style="font-size:8px; padding-left: 10px; margin:-5px 0 -2px;">23.03.2025</div><a href="/main/m/54/367/12629"> Japan</a><div style="font-size:8px; padding-left: 10px; margin:-5px 0 -2px;">06.04.2025</div><a href="/main/m/54/367/12630"> Bahrain</a><div style="font-size:8px; padding-left: 10px; margin:-5px 0 -2px;">13.04.2025</div><a href="/main/m/54/367/12631"> Saudi Arabia</a><div style="font-size:8px; padding-left: 10px; margin:-5px 0 -2px;">20.04.2025</div><a href="/main/m/54/367/12632"> Miami</a><div style="font-size:8px; padding-left: 10px; margin:-5px 0 -2px;">04.05.2025</div><a href="/main/m/54/367/12633"> Emilia Romagna</a><div style="font-size:8px; padding-left: 10px; margin:-5px 0 -2px;">18.05.2025</div><a href="/main/m/54/367/12634"> Monaco</a><div style="font-size:8px; padding-left: 10px; margin:-5px 0 -2px;">25.05.2025</div><a href="/main/m/54/367/12635"> Spain</a><div style="font-size:8px; padding-left: 10px; margin:-5px 0 -2px;">01.06.2025</div><a href="/main/m/54/367/12636"> Canada</a><div style="font-size:8px; padding-left: 10px; margin:-5px 0 -2px;">15.06.2025</div><a href="/main/m/54/367/12637"> Austria</a><div style="font-size:8px; padding-left: 10px; margin:-5px 0 -2px;">29.06.2025</div><a href="/main/m/54/367/12638"> Great Britain</a><div style="font-size:8px; padding-left: 10px; margin:-5px 0 -2px;">06.07.2025</div><a href="/main/m/54/367/12639"> Belgium</a><div style="font-size:8px; padding-left: 10px; margin:-5px 0 -2px;">27.07.2025</div><a href="/main/m/54/367/12640"> Hungary</a><div style="font-size:8px; padding-left: 10px; margin:-5px 0 -2px;">03.08.2025</div><a href="/main/m/54/367/12641"> Netherlands</a><div style="font-size:8px; padding-left: 10px; margin:-5px 0 -2px;">31.08.2025</div><a href="/main/m/54/367/12642"> Italy</a><div style="font-size:8px; padding-left: 10px; margin:-5px 0 -2px;">07.09.2025</div><a href="/main/m/54/367/12643"> Azerbaijan</a><div style="font-size:8px; padding-left: 10px; margin:-5px 0 -2px;">21.09.2025</div><a href="/main/m/54/367/12644"> Singapore</a><div style="font-size:8px; padding-left: 10px; margin:-5px 0 -2px;">05.10.2025</div><a href="/main/m/54/367/12645"> USA</a><div style="font-size:8px; padding-left: 10px; margin:-5px 0 -2px;">19.10.2025</div><a href="/main/m/54/367/12646"> Mexico</a><div style="font-size:8px; padding-left: 10px; margin:-5px 0 -2px;">26.10.2025</div><a href="/main/m/54/367/12647"> Brazil</a><div style="font-size:8px; padding-left: 10px; margin:-5px 0 -2px;">09.11.2025</div><a href="/main/m/54/367/12648"> Las Vegas</a><div style="font-size:8px; padding-left: 10px; margin:-5px 0 -2px;">22.11.2025</div><a href="/main/m/54/367/12649"> Qatar</a><div style="font-size:8px; padding-left: 10px; margin:-5px 0 -2px;">30.11.2025</div><b> Abu Dhabi</b> <div style="font-size:8px; padding-left: 10px; margin:-5px 0 -2px;">07.12.2025</div><a href="/main/m/54/367/12847"> Abu Dhabi</a><div style="font-size:8px; padding-left: 10px; margin:-5px 0 -2px;">09.12.2025</div></td><td id="td_menu_holder"><!-- vertical menu --></td><td><!-- layout --><h2>24. Abu Dhabi / Etihad Airways Abu Dhabi Grand Prix / Yas Marina</h2><div id="session_list">  | <a  href="/main/m/54/367/12650/-1">ENTRY LIST</a> | <a  href="/main/m/54/367/12650/60030">P1</a> | <a  href="/main/m/54/367/12650/60031">P2</a> | <a  href="/main/m/54/367/12650/60032">P3</a> | <a  href="/main/m/54/367/12650/60033">Q1</a> | <a  href="/main/m/54/367/12650/60034">Q2</a> | <a  href="/main/m/54/367/12650/60035">Q3</a> | <a  href="/main/m/54/367/12650/60036">CQ</a> | <a  href="/main/m/54/367/12650/60037">GRID</a> | <b >RACE</b> | <a href="/main/m/54/367/12650/60038/2">TYRE HISTORY</a> | <a  href="/main/m/54/367/12650/60039">FASTEST LAPS</a> | <a  href="/main/m/54/367/12650/60040">PIT STOPS</a> | <a  href="/main/m/54/367/12650/60041">SPEEDS</a></div> <br>  <h2>RACE</h2>&nbsp; <a href="/main/m/54/367/12650/60038/3">Data player</a>  &nbsp; <a href="/main/m/54/367/12650/60038/4">LIVE</a>  &nbsp; <a href="/main/m/54/367/12650/60038/5">LIVE 2</a>  &nbsp; <a href="/main/m/54/367/12650/60038/6">LV_5</a>  &nbsp; <a href="/main/m/54/367/12650/60038/7">DP_5</a> &nbsp;<a href="?v=4">Laps times</a><br><table><tr valign="top"><td><table class="results tab_60038" ><tr valign="top"><th align="right">cla</th><th align="left"style="background-color: #fcc"></th><th align="right">#</th><th align="left">driver</th><th align="left">chassis</th><th align="left">engine</th><th align="right">laps</th><th align="right">time</th><th align="right">gap</th><th align="right">int</th><th align="right">km/h</th><th align="right">pits</th><th align="left"style="background-color: #fcc">retirement</th><th align="right">pts</th><th align="right">pen</th><th align="right"style="background-color: #fcc">reprim</th><th align="left">tyres change</th><th align="left">b_tyres</th></tr> 
--- Parsing ran at Sun Dec 14 09:53:28 +08 2025 ---
Parsing GP 12627
Parsing GP 12628
Parsing GP 12629
Parsing GP 12630
Parsing GP 12631
Parsing GP 12632
Parsing GP 12633
Parsing GP 12634
Parsing GP 12635
Parsing GP 12636
Parsing GP 12637
Parsing GP 12638
Parsing GP 12639
Parsing GP 12640
Parsing GP 12641
Parsing GP 12642
Parsing GP 12643
Parsing GP 12644
Parsing GP 12645
Parsing GP 12646
Parsing GP 12647
Parsing GP 12648
Parsing GP 12649
Parsing GP 12650
--- Parsing ran at Sun Dec 14 10:03:37 +08 2025 ---
Parsing GP 12627
Parsing GP 12628
Parsing GP 12629
Parsing GP 12630
Parsing GP 12631
Parsing GP 12632
Parsing GP 12633
Parsing GP 12634
Parsing GP 12635
Parsing GP 12636
Parsing GP 12637
Parsing GP 12638
Parsing GP 12639
Parsing GP 12640
Parsing GP 12641
Parsing GP 12642
Parsing GP 12643
Parsing GP 12644
Parsing GP 12645
Parsing GP 12646
Parsing GP 12647
Parsing GP 12648
Parsing GP 12649
Parsing GP 12650
--- Parsing ran at Sun Dec 14 10:18:06 +08 2025 ---
Parsing GP 12627
Parsing GP 12628
Parsing GP 12629
Parsing GP 12630
Parsing GP 12631
Parsing GP 12632
Parsing GP 12633
Parsing GP 12634
Parsing GP 12635
Parsing GP 12636
Parsing GP 12637
Parsing GP 12638
Parsing GP 12639
Parsing GP 12640
Parsing GP 12641
Parsing GP 12642
Parsing GP 12643
Parsing GP 12644
Parsing GP 12645
Parsing GP 12646
Parsing GP 12647
Parsing GP 12648
Parsing GP 12649
Parsing GP 12650
--- Parsing ran at Sun Dec 14 10:37:09 +08 2025 ---
Parsing GP 12627
Parsing GP 12628
Parsing GP 12629
Parsing GP 12630
Parsing GP 12631
Parsing GP 12632
Parsing GP 12633
Parsing GP 12634
Parsing GP 12635
Parsing GP 12636
Parsing GP 12637
Parsing GP 12638
Parsing GP 12639
Parsing GP 12640
Parsing GP 12641
Parsing GP 12642
Parsing GP 12643
Parsing GP 12644
Parsing GP 12645
Parsing GP 12646
Parsing GP 12647
Parsing GP 12648
Parsing GP 12649
Parsing GP 12650
--- Parsing ran at Sun Dec 14 10:42:48 +08 2025 ---
Parsing GP 12627
Parsing GP 12628
Parsing GP 12629
Parsing GP 12630
Parsing GP 12631
Parsing GP 12632
Parsing GP 12633
Parsing GP 12634
Parsing GP 12635
Parsing GP 12636
Parsing GP 12637
Parsing GP 12638
Parsing GP 12639
Parsing GP 12640
Parsing GP 12641
Parsing GP 12642
Parsing GP 12643
Parsing GP 12644
Parsing GP 12645
Parsing GP 12646
Parsing GP 12647
Parsing GP 12648
Parsing GP 12649
Parsing GP 12650
--- Parsing ran at Sun Dec 14 10:47:44 +08 2025 ---
Parsing GP 12627
Parsing GP 12628
Parsing GP 12629
Parsing GP 12630
Parsing GP 12631
Parsing GP 12632
Parsing GP 12633
Parsing GP 12634
Parsing GP 12635
Parsing GP 12636
Parsing GP 12637
Parsing GP 12638
Parsing GP 12639
Parsing GP 12640
Parsing GP 12641
Parsing GP 12642
Parsing GP 12643
Parsing GP 12644
Parsing GP 12645
Parsing GP 12646
Parsing GP 12647
Parsing GP 12648
Parsing GP 12649
Parsing GP 12650
--- Parsing ran at Sun Dec 14 10:54:25 +08 2025 ---
Parsing GP 12627
Parsing GP 12628
Parsing GP 12629
Parsing GP 12630
Parsing GP 12631
Parsing GP 12632
Parsing GP 12633
Parsing GP 12634
Parsing GP 12635
Parsing GP 12636
Parsing GP 12637
Parsing GP 12638
Parsing GP 12639
Parsing GP 12640
Parsing GP 12641
Parsing GP 12642
Parsing GP 12643
Parsing GP 12644
Parsing GP 12645
Parsing GP 12646
Parsing GP 12647
Parsing GP 12648
Parsing GP 12649
Parsing GP 12650
--- Parsing ran at Sun Dec 14 10:57:15 +08 2025 ---
Parsing GP 12627
Parsing GP 12628
Parsing GP 12629
Parsing GP 12630
Parsing GP 12631
Parsing GP 12632
Parsing GP 12633
Parsing GP 12634
Parsing GP 12635
Parsing GP 12636
Parsing GP 12637
Parsing GP 12638
Parsing GP 12639
Parsing GP 12640
Parsing GP 12641
Parsing GP 12642
Parsing GP 12643
Parsing GP 12644
Parsing GP 12645
Parsing GP 12646
Parsing GP 12647
Parsing GP 12648
Parsing GP 12649
Parsing GP 12650
--- Parsing ran at Sun Dec 14 11:20:57 +08 2025 ---
Parsing GP 12627
Parsing GP 12628
Parsing GP 12629
Parsing GP 12630
Parsing GP 12631
Parsing GP 12632
Parsing GP 12633
Parsing GP 12634
Parsing GP 12635
Parsing GP 12636
Parsing GP 12637
Parsing GP 12638
Parsing GP 12639
Parsing GP 12640
Parsing GP 12641
Parsing GP 12642
Parsing GP 12643
Parsing GP 12644
Parsing GP 12645
Parsing GP 12646
Parsing GP 12647
Parsing GP 12648
Parsing GP 12649
Parsing GP 12650
--- Parsing ran at Sun Dec 14 11:23:05 +08 2025 ---
Parsing GP 12627
Parsing GP 12628
Parsing GP 12629
Parsing GP 12630
Parsing GP 12631
Parsing GP 12632
Parsing GP 12633
Parsing GP 12634
Parsing GP 12635
Parsing GP 12636
Parsing GP 12637
Parsing GP 12638
Parsing GP 12639
Parsing GP 12640
Parsing GP 12641
Parsing GP 12642
Parsing GP 12643
Parsing GP 12644
Parsing GP 12645
Parsing GP 12646
Parsing GP 12647
Parsing GP 12648
Parsing GP 12649
Parsing GP 12650
--- Parsing ran at Sun Dec 14 11:25:08 +08 2025 ---
Parsing GP 12627
Parsing GP 12628
Parsing GP 12629
Parsing GP 12630
Parsing GP 12631
Parsing GP 12632
Parsing GP 12633
Parsing GP 12634
Parsing GP 12635
Parsing GP 12636
Parsing GP 12637
Parsing GP 12638
Parsing GP 12639
Parsing GP 12640
Parsing GP 12641
Parsing GP 12642
Parsing GP 12643
Parsing GP 12644
Parsing GP 12645
Parsing GP 12646
Parsing GP 12647
Parsing GP 12648
Parsing GP 12649
Parsing GP 12650
--- Parsing ran at Sun Dec 14 12:33:31 +08 2025 ---
Parsing GP 12627
Parsing GP 12628
Parsing GP 12629
Parsing GP 12630
Parsing GP 12631
Parsing GP 12632
Parsing GP 12633
Parsing GP 12634
Parsing GP 12635
Parsing GP 12636
Parsing GP 12637
Parsing GP 12638
Parsing GP 12639
Parsing GP 12640
Parsing GP 12641
Parsing GP 12642
Parsing GP 12643
Parsing GP 12644
Parsing GP 12645
Parsing GP 12646
Parsing GP 12647
Parsing GP 12648
Parsing GP 12649
Parsing GP 12650
--- Parsing ran at Sun Dec 14 12:35:17 +08 2025 ---
Parsing GP 12627
Parsing GP 12628
Parsing GP 12629
Parsing GP 12630
Parsing GP 12631
Parsing GP 12632
Parsing GP 12633
Parsing GP 12634
Parsing GP 12635
Parsing GP 12636
Parsing GP 12637
Parsing GP 12638
Parsing GP 12639
Parsing GP 12640
Parsing GP 12641
Parsing GP 12642
Parsing GP 12643
Parsing GP 12644
Parsing GP 12645
Parsing GP 12646
Parsing GP 12647
Parsing GP 12648
Parsing GP 12649
Parsing GP 12650
--- Parsing ran at Sun Dec 14 13:41:28 +08 2025 ---
Parsing GP 12627
Parsing GP 12628
Parsing GP 12629
Parsing GP 12630
Parsing GP 12631
Parsing GP 12632
Parsing GP 12633
Parsing GP 12634
Parsing GP 12635
Parsing GP 12636
Parsing GP 12637
Parsing GP 12638
Parsing GP 12639
Parsing GP 12640
Parsing GP 12641
Parsing GP 12642
Parsing GP 12643
Parsing GP 12644
Parsing GP 12645
Parsing GP 12646
Parsing GP 12647
Parsing GP 12648
Parsing GP 12649
Parsing GP 12650
